ccopy_reg
_reconstructor
p1
(cnltk.tag.sequential
TrigramTagger
p2
c__builtin__
object
p3
NtRp4
(dp5
S'_taggers'
p6
(lp7
g4
ag1
(cnltk.tag.sequential
BigramTagger
p8
g3
NtRp9
(dp10
g6
(lp11
g9
ag1
(cnltk.tag.sequential
UnigramTagger
p12
g3
NtRp13
(dp14
g6
(lp15
g13
ag1
(cnltk.tag.sequential
DefaultTagger
p16
g3
NtRp17
(dp18
g6
(lp19
g17
asS'_tag'
p20
S'NN'
p21
sbasS'_n'
p22
I1
sS'_context_to_tag'
p23
(dp24
VPRP$
p25
VB-NP
p26
sVVBG
p27
VB-VP
p28
sVFW
p29
VI-NP
p30
sVVB
p31
VI-VP
p32
sVPOS
p33
VB-NP
p34
sV''
p35
VO
sVVBP
p36
VB-VP
p37
sVWDT
p38
VB-NP
p39
sVJJ
p40
VI-NP
p41
sVWP
p42
VB-NP
p43
sVVBZ
p44
VB-VP
p45
sVDT
p46
VB-NP
p47
sV#
VB-NP
p48
sVRP
p49
VO
sV$
VB-NP
p50
sVNN
p51
VI-NP
p52
sV)
VO
sV(
VO
sVVBD
p53
VB-VP
p54
sV,
VO
sV.
VO
sVTO
p55
VB-PP
p56
sVPRP
p57
VB-NP
p58
sVRB
p59
VO
sV:
VO
sVNNS
p60
VI-NP
p61
sVNNP
p62
VI-NP
p63
sV``
p64
VO
sVWRB
p65
VO
sVCC
p66
VO
sVPDT
p67
VB-NP
p68
sVRBS
p69
VB-NP
p70
sVRBR
p71
VO
sVVBN
p72
VI-VP
p73
sVEX
p74
VB-NP
p75
sVIN
p76
VB-PP
p77
sVWP$
p78
VB-NP
p79
sVCD
p80
VI-NP
p81
sVMD
p82
VB-VP
p83
sVNNPS
p84
VI-NP
p85
sVJJS
p86
VI-NP
p87
sVJJR
p88
VB-NP
p89
sVSYM
p90
VO
sVUH
p91
VO
ssbag17
asg22
I2
sg23
(dp92
((VI-PP
p93
tVVB
p94
tp95
VO
s((VI-VP
p96
tVNNP
p97
tp98
VB-NP
p99
s((VI-VP
p100
tVEX
p101
tp102
VO
s((VB-NP
p103
tVIN
p104
tp105
g77
s((VB-VP
p106
tV''
p107
tp108
VO
s((VI-VP
p109
tVCD
p110
tp111
VB-NP
p112
s((VI-PP
p113
tVIN
p114
tp115
VI-PP
p116
s((VO
tVWP
p117
tp118
g43
s((VB-VP
p119
tVCC
p120
tp121
VI-VP
p122
s((VI-NP
p123
tVRB
p124
tp125
VO
s((VI-PP
p126
tVNNP
p127
tp128
VB-NP
p129
s((tVIN
p130
tp131
VB-PP
p132
s((VB-NP
p133
tVJJR
p134
tp135
VI-NP
p136
s((VI-VP
p137
tVVBD
p138
tp139
VI-VP
p140
s((VB-NP
p141
tV.
tp142
VO
s((g45
tg59
tp143
VI-VP
p144
s((VI-VP
p145
tV(
tp146
VO
s((g58
tVTO
p147
tp148
VB-VP
p149
s((VB-NP
p150
tVJJ
p151
tp152
g41
s((g37
tg27
tp153
VI-VP
p154
s((VI-NP
p155
tVVB
p156
tp157
VB-VP
p158
s((VB-PP
p159
tVJJR
p160
tp161
g89
s((VI-VP
p162
tVNN
p163
tp164
VB-NP
p165
s((tVVBD
p166
tp167
VB-VP
p168
s((VB-NP
p169
tVVBG
p170
tp171
VI-NP
p172
s((VB-VP
p173
tVVBD
p174
tp175
VI-VP
p176
s((VB-VP
p177
tVTO
p178
tp179
VI-VP
p180
s((VI-VP
p181
tVRBR
p182
tp183
VO
s((VO
tVNN
p184
tp185
VB-NP
p186
s((VB-VP
p187
tVVB
p188
tp189
VI-VP
p190
s((VB-NP
p191
tVEX
p192
tp193
VO
s((VI-NP
p194
tVVBD
p195
tp196
VB-VP
p197
s((VI-NP
p198
tg71
tp199
VO
s((VI-NP
p200
tV#
tp201
VI-NP
p202
s((VI-NP
p203
tVRBS
p204
tp205
VI-NP
p206
s((VO
tVNNPS
p207
tp208
VB-NP
p209
s((VB-NP
p210
tV,
tp211
VO
s((VI-VP
p212
tVJJR
p213
tp214
VB-NP
p215
s((VI-PP
p216
tVDT
p217
tp218
VB-NP
p219
s((VI-NP
p220
tVNNP
p221
tp222
g63
s((VI-VP
p223
tVVBZ
p224
tp225
VB-VP
p226
s((tVDT
p227
tp228
VB-NP
p229
s((VB-PP
p230
tVRP
p231
tp232
VB-PP
p233
s((VB-VP
p234
tVRP
p235
tp236
VO
s((VB-VP
p237
tVWRB
p238
tp239
VO
s((VO
tVRBS
p240
tp241
VB-NP
p242
s((VB-PP
p243
tVIN
p244
tp245
g243
s((VB-VP
p246
tVNNS
p247
tp248
VB-NP
p249
s((VO
tVRP
p250
tp251
VB-PP
p252
s((VI-NP
p253
tVVBZ
p254
tp255
g45
s((VI-VP
p256
tVNNS
p257
tp258
VB-NP
p259
s((VI-VP
p260
tVVB
p261
tp262
g32
s((VO
tVMD
p263
tp264
VB-VP
p265
s((VB-PP
p266
tVNNPS
p267
tp268
VB-NP
p269
s((g73
tg55
tp270
VI-VP
p271
s((VO
tVVB
p272
tp273
g177
s((VB-NP
p274
tVFW
p275
tp276
g30
s((VB-PP
p277
tVJJ
p278
tp279
VB-NP
p280
s((VI-VP
p281
tVJJ
p282
tp283
g103
s((VB-PP
p284
tVPDT
p285
tp286
VB-NP
p287
s((VI-NP
p288
tV$
tp289
VI-NP
p290
s((VI-PP
p291
tVNN
p292
tp293
VB-NP
p294
s((VB-NP
p295
tVNN
p296
tp297
g52
s((tVCC
p298
tp299
VO
s((VO
tVTO
p300
tp301
VB-VP
p302
s((VI-NP
p303
tVCD
p304
tp305
g81
s((VB-PP
p306
tVNN
p307
tp308
g295
s((VI-PP
p309
tVCC
p310
tp311
VI-PP
p312
s((VB-NP
p313
tV#
tp314
VI-NP
p315
s((tVVB
p316
tp317
VB-VP
p318
s((VO
tVJJ
p319
tp320
VB-NP
p321
s((VI-VP
p322
tVWDT
p323
tp324
VB-NP
p325
s((VO
tVJJR
p326
tp327
VO
s((VO
tVDT
p328
tp329
VB-NP
p330
s((VO
tVPOS
p331
tp332
VB-NP
p333
s((VI-VP
p334
tV''
p335
tp336
VO
s((VB-PP
p337
tVCC
p338
tp339
VI-PP
p340
s((VB-NP
p341
tV$
tp342
VI-NP
p343
s((tVNNP
p344
tp345
VB-NP
p346
s((VB-NP
p347
tVVB
p348
tp349
VB-VP
p350
s((VB-NP
p351
tVWP
p352
tp353
VB-NP
p354
s((VB-NP
p355
tVPDT
p356
tp357
VI-NP
p358
s((VB-PP
p359
tVPRP$
p360
tp361
g26
s((VI-NP
p362
tVPOS
p363
tp364
g34
s((VI-VP
p365
tVRP
p366
tp367
VO
s((VO
tVWRB
p368
tp369
VO
s((VI-VP
p370
tVRBS
p371
tp372
VB-NP
p373
s((VB-NP
p374
tVVBZ
p375
tp376
VB-VP
p377
s((VB-NP
p378
tVPOS
p379
tp380
VB-NP
p381
s((VB-VP
p382
tVNN
p383
tp384
VB-NP
p385
s((VI-NP
p386
tV(
tp387
VO
s((VB-PP
p388
tVVBD
p389
tp390
VB-NP
p391
s((VI-VP
p392
tVCC
p393
tp394
VI-VP
p395
s((VB-VP
p396
tVJJS
p397
tp398
VO
s((VI-NP
p399
tV:
tp400
VO
s((VB-VP
p401
tVVBP
p402
tp403
VI-VP
p404
s((tV``
p405
tp406
VO
s((VB-VP
p407
tVVBN
p408
tp409
VI-VP
p410
s((VI-VP
p411
tVJJS
p412
tp413
VO
s((VB-PP
p414
tg62
tp415
VB-NP
p416
s((VO
tV:
tp417
VO
s((VI-NP
p418
tV)
tp419
VO
s((VB-VP
p420
tVWDT
p421
tp422
VB-NP
p423
s((tg51
tp424
VB-NP
p425
s((VB-VP
p426
tVRBS
p427
tp428
VB-NP
p429
s((VI-VP
p430
tV``
p431
tp432
VO
s((VI-NP
p433
tVRP
p434
tp435
VB-PP
p436
s((VB-PP
p437
tVDT
p438
tp439
g47
s((VB-PP
p440
tg80
tp441
VB-NP
p442
s((VB-PP
p443
tVVBG
p444
tp445
g246
s((VO
tVRB
p446
tp447
VO
s((VI-VP
p448
tVDT
p449
tp450
VB-NP
p451
s((tVVBZ
p452
tp453
VB-VP
p454
s((VO
tV``
p455
tp456
VO
s((VB-PP
p457
tV``
p458
tp459
VO
s((VI-NP
p460
tVIN
p461
tp462
g414
s((VI-NP
p463
tVWP
p464
tp465
VB-NP
p466
s((VO
tVVBG
p467
tp468
VB-VP
p469
s((VO
tVCD
p470
tp471
VB-NP
p472
s((tV:
tp473
VO
s((VB-NP
p474
tVDT
p475
tp476
VI-NP
p477
s((VB-VP
p478
tVIN
p479
tp480
VB-PP
p481
s((VB-PP
p482
tVNNS
p483
tp484
VB-NP
p485
s((VO
tV$
tp486
VB-NP
p487
s((VO
tV#
tp488
VO
s((VO
tV''
p489
tp490
VO
s((VI-NP
p491
tVJJS
p492
tp493
VI-NP
p494
s((tVEX
p495
tp496
VB-NP
p497
s((tVNNPS
p498
tp499
VB-NP
p500
s((VB-VP
p501
tVNNPS
p502
tp503
VB-NP
p504
s((VB-NP
p505
tVMD
p506
tp507
g83
s((VO
tVVBD
p508
tp509
g54
s((VB-NP
p510
tVCD
p511
tp512
VI-NP
p513
s((VB-VP
p514
tV,
tp515
VO
s((VI-PP
p516
tVCD
p517
tp518
VB-NP
p519
s((VB-NP
p520
tV``
p521
tp522
VI-NP
p523
s((VB-PP
p524
tVWRB
p525
tp526
VO
s((tVTO
p527
tp528
VB-VP
p529
s((VO
tg86
tp530
VO
s((VI-VP
p531
tVMD
p532
tp533
VB-VP
p534
s((VB-NP
p535
tVNNP
p536
tp537
g220
s((VI-NP
p538
tV,
tp539
VO
s((VB-NP
p540
tVVBP
p541
tp542
g37
s((VB-VP
p543
tVEX
p544
tp545
VB-NP
p546
s((g85
tVCC
p547
tp548
VO
s((VB-NP
p549
tVRBS
p550
tp551
VI-NP
p552
s((VO
tVNNS
p553
tp554
VB-NP
p555
s((VB-NP
p556
tVWRB
p557
tp558
VO
s((tVVBP
p559
tp560
VO
s((VO
tVCC
p561
tp562
VO
s((VI-VP
p563
tVIN
p564
tp565
VB-PP
p566
s((VI-PP
p567
tVJJ
p568
tp569
VB-NP
p570
s((VB-NP
p571
tg66
tp572
VO
s((VI-NP
p573
tVPRP$
p574
tp575
VB-NP
p576
s((tVJJS
p577
tp578
VB-NP
p579
s((VB-NP
p580
tV''
p581
tp582
VO
s((tVJJ
p583
tp584
VB-NP
p585
s((VB-VP
p586
tVPDT
p587
tp588
VB-NP
p589
s((VB-PP
p590
tVVBN
p591
tp592
VB-NP
p593
s((VB-VP
p594
tVMD
p595
tp596
VB-VP
p597
s((VI-NP
p598
tVPRP
p599
tp600
VB-NP
p601
s((VB-VP
p602
tVVBZ
p603
tp604
VI-VP
p605
s((VO
tVWDT
p606
tp607
g39
s((VO
tVVBN
p608
tp609
VB-VP
p610
s((VB-PP
p611
tV(
tp612
VO
s((VB-NP
p613
tVJJS
p614
tp615
g87
s((VB-VP
p616
tVPRP$
p617
tp618
VB-NP
p619
s((tVNNS
p620
tp621
VB-NP
p622
s((VB-VP
p623
tVJJR
p624
tp625
VB-NP
p626
s((VO
tVVBP
p627
tp628
VB-VP
p629
s((VI-NP
p630
tV''
p631
tp632
VO
s((VB-VP
p633
tVCD
p634
tp635
VB-NP
p636
s((VI-NP
p637
tVTO
p638
tp639
VB-VP
p640
s((VB-NP
p641
tVPRP$
p642
tp643
VI-NP
p644
s((VO
tVEX
p645
tp646
g75
s((VI-VP
p647
tVRB
p648
tp649
VO
s((VO
tVPDT
p650
tp651
VB-NP
p652
s((VI-NP
p653
tV.
tp654
VO
s((VO
tVFW
p655
tp656
VO
s((VB-VP
p657
tVFW
p658
tp659
VB-NP
p660
s((VB-PP
p661
tVVB
p662
tp663
VB-NP
p664
s((VI-NP
p665
tVJJR
p666
tp667
VI-NP
p668
s((VI-VP
p669
tVWRB
p670
tp671
VO
s((VO
tVNNP
p672
tp673
VB-NP
p674
s((VI-NP
p675
tVEX
p676
tp677
VB-NP
p678
s((VB-PP
p679
tVFW
p680
tp681
VB-NP
p682
s((VI-NP
p683
tVNN
p684
tp685
g460
s((VB-NP
p686
tVPRP
p687
tp688
VB-NP
p689
s((VB-NP
p690
tVVBD
p691
tp692
VB-VP
p693
s((VI-NP
p694
tVDT
p695
tp696
VB-NP
p697
s((VB-NP
p698
tVSYM
p699
tp700
g657
s((VI-NP
p701
tVVBG
p702
tp703
g28
s((VB-PP
p704
tVJJS
p705
tp706
VB-NP
p707
s((tVCD
p708
tp709
VB-NP
p710
s((VI-NP
p711
tV``
p712
tp713
VO
s((VI-NP
p714
tVJJ
p715
tp716
VI-NP
p717
s((tVVBN
p718
tp719
VB-VP
p720
s((VI-NP
p721
tVMD
p722
tp723
VB-VP
p724
s((VI-VP
p725
tVNNPS
p726
tp727
VB-NP
p728
s((VB-NP
p729
tVVBN
p730
tp731
VI-NP
p732
s((VI-NP
p733
tVNNPS
p734
tp735
VI-NP
p736
s((VI-PP
p737
tVVBN
p738
tp739
VB-NP
p740
s((VB-VP
p741
tV``
p742
tp743
VO
s((VI-NP
p744
tVNNS
p745
tp746
VI-NP
p747
s((VB-VP
p748
tVJJ
p749
tp750
VB-NP
p751
s((VI-NP
p752
tVVBN
p753
tp754
VB-VP
p755
s((VI-PP
p756
tVRB
p757
tp758
g113
s((VB-NP
p759
tV)
tp760
VO
s((VB-NP
p761
tVRB
p762
tp763
VO
s((VO
tVRBR
p764
tp765
VO
s((tVRB
p766
tp767
VO
s((VB-PP
p768
tVRB
p769
tp770
VB-NP
p771
s((tVVBG
p772
tp773
VB-VP
p774
s((VO
tVVBZ
p775
tp776
VB-VP
p777
s((g54
tVNNP
p778
tp779
VB-NP
p780
s((VI-VP
p781
tVVBP
p782
tp783
VI-VP
p784
s((VI-NP
p785
tVVBP
p786
tp787
VB-VP
p788
s((VB-NP
p789
tV:
tp790
VO
s((VB-VP
p791
tVRBR
p792
tp793
VO
s((VB-NP
p794
tVUH
p795
tp796
VI-NP
p797
s((VB-PP
p798
tVTO
p799
tp800
VB-PP
p801
s((VB-NP
p802
tV(
tp803
VO
s((VB-VP
p804
tVDT
p805
tp806
VB-NP
p807
s((VI-NP
p808
tVWRB
p809
tp810
VO
s((VI-PP
p811
tVNNS
p812
tp813
VB-NP
p814
s((VB-PP
p815
tVVBZ
p816
tp817
VB-NP
p818
s((VB-NP
p819
tVNNS
p820
tp821
g61
s((VO
tVIN
p822
tp823
g306
s((VI-VP
p824
tV,
tp825
VO
s((tVRBR
p826
tp827
VB-NP
p828
s((VB-PP
p829
tVRBR
p830
tp831
VB-NP
p832
s((VI-VP
p833
tVVBG
p834
tp835
VI-VP
p836
s((tVMD
p837
tp838
VO
s((VI-NP
p839
tVPDT
p840
tp841
VI-NP
p842
s((VB-NP
p843
tVRBR
p844
tp845
VI-NP
p846
s((VI-VP
p847
tVVBN
p848
tp849
g73
ssbag13
ag17
asg22
I3
sg23
(dp850
((VB-NP
p851
VB-NP
p852
tV``
p853
tp854
VI-NP
p855
s((VI-NP
p856
VI-NP
p857
tVRBR
p858
tp859
VB-NP
p860
s((tg166
tp861
g168
s((VB-NP
p862
g510
tg511
tp863
VI-NP
p864
s((VB-NP
p865
tVIN
p866
tp867
g77
s((VO
VB-NP
p868
tVCD
p869
tp870
VI-NP
p871
s((VI-NP
p872
VI-NP
p873
tVPOS
p874
tp875
g34
s((VI-VP
p876
VO
tVNN
p877
tp878
VB-NP
p879
s((tg130
tp880
g132
s((VO
VO
tVVBN
p881
tp882
VB-VP
p883
s((VB-PP
p884
g789
tV:
tp885
VO
s((VB-NP
p886
VB-PP
p887
tVRB
p888
tp889
VB-NP
p890
s((VB-PP
p891
VB-NP
p892
tVPOS
p893
tp894
VB-NP
p895
s((VB-NP
p896
tV.
tp897
VO
s((VI-NP
p898
VB-VP
p899
tVWDT
p900
tp901
VB-NP
p902
s((VB-NP
p903
VB-VP
p904
tVVBD
p905
tp906
VI-VP
p907
s((VI-NP
p908
g426
tg427
tp909
VI-VP
p910
s((VI-NP
p911
VB-VP
p912
tVNN
p913
tp914
g385
s((VB-VP
p915
VB-NP
p916
tV$
tp917
VI-NP
p918
s((VB-VP
p919
VB-NP
p920
tV''
p921
tp922
VO
s((VB-NP
p923
VI-NP
p924
tV)
tp925
VO
s((VI-NP
p926
VI-NP
p927
tV''
p928
tp929
VO
s((VB-NP
p930
tVVBG
p931
tp932
VI-NP
p933
s((VI-VP
p934
VI-VP
p935
tVEX
p936
tp937
VO
s((g510
VO
tVNN
p938
tp939
VB-NP
p940
s((VB-PP
p941
VB-NP
p942
tVVBN
p943
tp944
VI-NP
p945
s((VB-NP
p946
VO
tVMD
p947
tp948
VB-VP
p949
s((VB-VP
p950
VO
tVVB
p951
tp952
g106
s((VB-PP
p953
g133
tg134
tp954
VI-NP
p955
s((VB-NP
p956
VB-PP
p957
tVCC
p958
tp959
VI-PP
p960
s((VB-NP
p961
VI-NP
p962
tVVBZ
p963
tp964
g45
s((VO
VB-NP
p965
tVDT
p966
tp967
VI-NP
p968
s((VB-PP
p969
g819
tg820
tp970
g198
s((VI-VP
p971
VB-PP
p972
tVRBR
p973
tp974
VB-NP
p975
s((tg227
tp976
g229
s((VB-VP
p977
VB-PP
p978
tVJJR
p979
tp980
VB-NP
p981
s((VI-NP
p982
VB-PP
p983
tVCC
p984
tp985
g340
s((VI-VP
p986
g443
tg444
tp987
VB-VP
p988
s((tVVB
p989
tp990
g318
s((VB-PP
p991
VO
tVJJ
p992
tp993
VB-NP
p994
s((VO
VB-VP
p995
tVJJS
p996
tp997
VI-VP
p998
s((VB-PP
p999
tVIN
p1000
tp1001
VI-PP
p1002
s((VB-VP
p1003
g260
tg261
tp1004
VI-VP
p1005
s((VI-NP
p1006
VI-NP
p1007
tVVB
p1008
tp1009
VB-VP
p1010
s((VO
VO
tVNNP
p1011
tp1012
VB-NP
p1013
s((VI-VP
p1014
VI-VP
p1015
tVVBD
p1016
tp1017
g140
s((VI-VP
p1018
VB-NP
p1019
tVVBP
p1020
tp1021
VB-VP
p1022
s((VI-NP
p1023
g359
tg360
tp1024
g26
s((VO
VB-NP
p1025
tVVBP
p1026
tp1027
g37
s((VI-NP
p1028
VO
tg508
tp1029
VB-VP
p1030
s((VO
tg263
tp1031
VO
s((VI-VP
p1032
VB-NP
p1033
tV$
tp1034
VI-NP
p1035
s((VI-NP
p1036
VI-NP
p1037
tVNN
p1038
tp1039
VI-NP
p1040
s((VB-VP
p1041
g751
tVNN
p1042
tp1043
VI-NP
p1044
s((VI-NP
p1045
VO
tVCC
p1046
tp1047
VO
s((VB-NP
p1048
tVNN
p1049
tp1050
VI-NP
p1051
s((g485
VO
tg608
tp1052
VB-VP
p1053
s((VO
VB-NP
p1054
tVRB
p1055
tp1056
VO
s((VB-NP
p1057
g457
tg458
tp1058
VO
s((VI-NP
p1059
VO
tVNNP
p1060
tp1061
g674
s((VO
g580
tg581
tp1062
VO
s((VB-NP
p1063
g711
tg712
tp1064
VO
s((VB-PP
p1065
VB-NP
p1066
tVNNP
p1067
tp1068
g220
s((VO
VB-VP
p1069
tVIN
p1070
tp1071
VB-PP
p1072
s((VI-PP
p1073
VB-NP
p1074
tVCC
p1075
tp1076
VO
s((VI-NP
p1077
VO
tVCD
p1078
tp1079
VB-NP
p1080
s((tVJJS
p1081
tp1082
g579
s((g420
VO
tVVBD
p1083
tp1084
VB-VP
p1085
s((VB-PP
p1086
VB-NP
p1087
tV$
tp1088
VI-NP
p1089
s((VB-VP
p1090
g334
tg335
tp1091
VO
s((VB-NP
p1092
g683
tg684
tp1093
g460
s((VI-NP
p1094
VB-NP
p1095
tVDT
p1096
tp1097
g477
s((VB-NP
p1098
VB-VP
p1099
tVVBP
p1100
tp1101
g404
s((VB-VP
p1102
VI-VP
p1103
tVJJR
p1104
tp1105
g215
s((VI-NP
p1106
VB-NP
p1107
tV)
tp1108
VI-NP
p1109
s((VB-NP
p1110
g543
tg544
tp1111
VB-NP
p1112
s((VB-NP
p1113
VI-NP
p1114
tVVB
p1115
tp1116
g158
s((VB-PP
p1117
g540
tg541
tp1118
VB-VP
p1119
s((VB-NP
p1120
tVPOS
p1121
tp1122
VB-NP
p1123
s((VI-VP
p1124
VB-NP
p1125
tVNNS
p1126
tp1127
VI-NP
p1128
s((VI-VP
p1129
VB-PP
p1130
tVIN
p1131
tp1132
VB-NP
p1133
s((VB-NP
p1134
VB-PP
p1135
tVIN
p1136
tp1137
VB-PP
p1138
s((VO
VB-NP
p1139
tVTO
p1140
tp1141
VB-VP
p1142
s((VI-NP
p1143
VI-NP
p1144
tVJJR
p1145
tp1146
VI-NP
p1147
s((VO
VB-NP
p1148
tVJJR
p1149
tp1150
g136
s((VO
VB-NP
p1151
tVNN
p1152
tp1153
VI-NP
p1154
s((VI-NP
p1155
VO
tVDT
p1156
tp1157
VB-NP
p1158
s((VB-VP
p1159
g181
tg182
tp1160
VO
s((VI-NP
p1161
VB-NP
p1162
tVRBS
p1163
tp1164
VI-NP
p1165
s((VI-NP
p1166
VB-VP
p1167
tVRB
p1168
tp1169
g144
s((VI-NP
p1170
g253
tg254
tp1171
VB-VP
p1172
s((VI-NP
p1173
VO
tVTO
p1174
tp1175
VB-PP
p1176
s((VB-VP
p1177
tVTO
p1178
tp1179
VB-PP
p1180
s((VI-NP
p1181
VB-PP
p1182
tVIN
p1183
tp1184
VB-PP
p1185
s((VB-VP
p1186
VB-NP
p1187
tV,
tp1188
VO
s((VI-VP
p1189
VO
tVVBZ
p1190
tp1191
VB-VP
p1192
s((VB-NP
p1193
g630
tg631
tp1194
VO
s((VB-VP
p1195
VI-VP
p1196
tVNN
p1197
tp1198
VB-NP
p1199
s((VO
g378
tg379
tp1200
g381
s((VI-VP
p1201
VB-NP
p1202
tVVBD
p1203
tp1204
VB-VP
p1205
s((VB-PP
p1206
g759
tV)
tp1207
VO
s((VI-VP
p1208
VO
tVNNS
p1209
tp1210
VB-NP
p1211
s((VI-NP
p1212
VB-PP
p1213
tVVBG
p1214
tp1215
g246
s((VI-NP
p1216
VB-VP
p1217
tVCC
p1218
tp1219
VO
s((VO
tVVBD
p1220
tp1221
VO
s((VI-NP
p1222
VO
tg240
tp1223
VB-NP
p1224
s((VB-NP
p1225
VB-NP
p1226
tV$
tp1227
VO
s((VI-NP
p1228
g418
tV)
tp1229
VO
s((VB-NP
p1230
g198
tg71
tp1231
VO
s((VO
VB-VP
p1232
tVJJ
p1233
tp1234
VB-NP
p1235
s((VI-VP
p1236
g212
tg213
tp1237
VB-NP
p1238
s((VI-VP
p1239
VB-NP
p1240
tV``
p1241
tp1242
VI-NP
p1243
s((g165
g1128
tVTO
p1244
tp1245
g440
s((VB-NP
p1246
g234
tg235
tp1247
VO
s((VO
VB-VP
p1248
tVVBP
p1249
tp1250
VI-VP
p1251
s((VO
tg561
tp1252
VO
s((VB-VP
p1253
VB-NP
p1254
tVRB
p1255
tp1256
VO
s((VB-NP
p1257
VI-NP
p1258
tVPRP
p1259
tp1260
g601
s((VI-NP
p1261
VB-VP
p1262
tVTO
p1263
tp1264
VI-VP
p1265
s((VO
VB-VP
p1266
tVVBN
p1267
tp1268
VI-VP
p1269
s((VO
g611
tV(
tp1270
g923
s((VI-NP
p1271
VB-PP
p1272
tV(
tp1273
VB-NP
p1274
s((VI-NP
p1275
VB-NP
p1276
tVPRP$
p1277
tp1278
VB-NP
p1279
s((VO
tVNN
p1280
tp1281
VB-NP
p1282
s((VI-NP
p1283
g804
tg805
tp1284
VB-NP
p1285
s((VI-NP
p1286
VB-VP
p1287
tVCD
p1288
tp1289
VB-NP
p1290
s((VO
tVNNP
p1291
tp1292
VB-NP
p1293
s((VI-VP
p1294
VB-PP
p1295
tVNN
p1296
tp1297
VB-NP
p1298
s((VI-NP
p1299
VI-NP
p1300
tVVBD
p1301
tp1302
g197
s((VB-VP
p1303
VB-NP
p1304
tVVBD
p1305
tp1306
VB-VP
p1307
s((VI-NP
p1308
VB-PP
p1309
tVNN
p1310
tp1311
VB-NP
p1312
s((VO
VO
tVVBG
p1313
tp1314
VB-VP
p1315
s((VB-NP
p1316
VB-NP
p1317
tVIN
p1318
tp1319
VB-PP
p1320
s((VI-NP
p1321
VB-NP
p1322
tVVBD
p1323
tp1324
VB-VP
p1325
s((VB-NP
p1326
g514
tV,
tp1327
VO
s((tg708
tp1328
g710
s((VB-VP
p1329
g556
tg557
tp1330
VO
s((VI-NP
p1331
VB-NP
p1332
tVIN
p1333
tp1334
VB-PP
p1335
s((VB-NP
p1336
VO
tVCC
p1337
tp1338
VO
s((VB-PP
p1339
VB-VP
p1340
tVVBN
p1341
tp1342
VI-VP
p1343
s((VB-VP
p1344
VI-VP
p1345
tVWRB
p1346
tp1347
VO
s((VI-NP
p1348
VB-NP
p1349
tVNNP
p1350
tp1351
VI-NP
p1352
s((VI-NP
p1353
VI-NP
p1354
tVCD
p1355
tp1356
VI-NP
p1357
s((VB-NP
p1358
VB-PP
p1359
tVJJ
p1360
tp1361
VB-NP
p1362
s((VB-VP
p1363
VB-NP
p1364
tVCD
p1365
tp1366
VI-NP
p1367
s((VB-PP
p1368
VB-PP
p1369
tV``
p1370
tp1371
VO
s((VB-NP
p1372
VB-NP
p1373
tVRBR
p1374
tp1375
VO
s((VB-PP
p1376
VO
tVNNP
p1377
tp1378
VB-NP
p1379
s((VI-NP
p1380
VB-NP
p1381
tV$
tp1382
VI-NP
p1383
s((VI-NP
p1384
g284
tg285
tp1385
VB-NP
p1386
s((VB-PP
p1387
VB-NP
p1388
tV,
tp1389
VO
s((VO
tVVBZ
p1390
tp1391
VB-VP
p1392
s((VB-VP
p1393
tVNNP
p1394
tp1395
VB-NP
p1396
s((VB-PP
p1397
g141
tV.
tp1398
VO
s((VI-PP
p1399
VB-NP
p1400
tV,
tp1401
VO
s((VB-PP
p1402
VB-NP
p1403
tVVB
p1404
tp1405
VB-VP
p1406
s((VI-VP
p1407
g876
tVDT
p1408
tp1409
g451
s((VB-NP
p1410
tVNNS
p1411
tp1412
g1283
s((VI-NP
p1413
VO
tV``
p1414
tp1415
VO
s((VB-PP
p1416
VB-VP
p1417
tVRBR
p1418
tp1419
VB-NP
p1420
s((VB-VP
p1421
VB-PP
p1422
tV``
p1423
tp1424
VO
s((VB-VP
p1425
VB-VP
p1426
tVJJR
p1427
tp1428
VB-NP
p1429
s((VB-PP
p1430
VB-NP
p1431
tVJJS
p1432
tp1433
g87
s((VB-PP
p1434
VB-NP
p1435
tVJJ
p1436
tp1437
VI-NP
p1438
s((VB-NP
p1439
VB-NP
p1440
tVCC
p1441
tp1442
VO
s((VB-PP
p1443
VB-VP
p1444
tVTO
p1445
tp1446
VI-VP
p1447
s((VB-NP
p1448
VO
tV``
p1449
tp1450
VO
s((VB-VP
p1451
VB-NP
p1452
tVCC
p1453
tp1454
VO
s((VI-NP
p1455
VI-NP
p1456
tVNNP
p1457
tp1458
VI-NP
p1459
s((VO
VB-PP
p1460
tVTO
p1461
tp1462
VB-PP
p1463
s((VB-PP
p1464
VO
tVCD
p1465
tp1466
VB-NP
p1467
s((VB-PP
p1468
VB-VP
p1469
tVNN
p1470
tp1471
VB-NP
p1472
s((VB-NP
p1473
VB-VP
p1474
tVCC
p1475
tp1476
VI-VP
p1477
s((tg344
tp1478
g346
s((tVNN
p1479
tp1480
g425
s((VI-VP
p1481
VO
tVVBG
p1482
tp1483
VB-VP
p1484
s((VI-VP
p1485
VO
tVVBN
p1486
tp1487
VB-VP
p1488
s((VI-VP
p1489
VB-PP
p1490
tVDT
p1491
tp1492
VB-NP
p1493
s((VI-VP
p1494
VB-NP
p1495
tVNN
p1496
tp1497
VI-NP
p1498
s((VB-VP
p1499
VB-NP
p1500
tVNNP
p1501
tp1502
VI-NP
p1503
s((VB-PP
p1504
VO
tVRBS
p1505
tp1506
VO
s((VO
VB-VP
p1507
tV``
p1508
tp1509
VO
s((VI-VP
p1510
VB-VP
p1511
tVRB
p1512
tp1513
VI-VP
p1514
s((VO
VO
tg775
tp1515
VB-VP
p1516
s((VO
VB-NP
p1517
tVNNS
p1518
tp1519
g61
s((VB-PP
p1520
VO
tVFW
p1521
tp1522
VB-NP
p1523
s((VB-VP
p1524
VO
tVNNP
p1525
tp1526
VB-NP
p1527
s((VO
VO
tVDT
p1528
tp1529
VB-NP
p1530
s((VB-NP
p1531
g586
tg587
tp1532
VB-NP
p1533
s((g159
VO
tVIN
p1534
tp1535
VB-PP
p1536
s((VI-NP
p1537
VO
tVJJR
p1538
tp1539
g961
s((VB-NP
p1540
VB-NP
p1541
tVVBP
p1542
tp1543
VB-VP
p1544
s((VB-VP
p1545
VO
tVRBR
p1546
tp1547
VO
s((VI-NP
p1548
g694
tg695
tp1549
g697
s((VI-VP
p1550
VI-VP
p1551
tVRB
p1552
tp1553
VO
s((VI-PP
p1554
VB-NP
p1555
tVVBZ
p1556
tp1557
VI-NP
p1558
s((VO
VO
tV$
tp1559
g487
s((VI-VP
p1560
VB-NP
p1561
tVVBZ
p1562
tp1563
VB-VP
p1564
s((VB-VP
p1565
VB-NP
p1566
tVMD
p1567
tp1568
VB-VP
p1569
s((VI-PP
p1570
VB-NP
p1571
tVTO
p1572
tp1573
VB-PP
p1574
s((g212
VO
tVIN
p1575
tp1576
VB-PP
p1577
s((VO
VO
tVCC
p1578
tp1579
VO
s((VO
VB-VP
p1580
tVVBG
p1581
tp1582
VI-VP
p1583
s((VI-VP
p1584
VO
tVDT
p1585
tp1586
VB-NP
p1587
s((VO
tVRBS
p1588
tp1589
VB-NP
p1590
s((VI-NP
p1591
VB-NP
p1592
tVJJR
p1593
tp1594
VI-NP
p1595
s((VB-NP
p1596
tVVBN
p1597
tp1598
VI-NP
p1599
s((VB-NP
p1600
g653
tV.
tp1601
VO
s((VO
VB-PP
p1602
tVIN
p1603
tp1604
VB-PP
p1605
s((VO
VB-NP
p1606
tVJJ
p1607
tp1608
VI-NP
p1609
s((VB-NP
p1610
VB-PP
p1611
tVCD
p1612
tp1613
VB-NP
p1614
s((VO
VB-NP
p1615
tVVB
p1616
tp1617
VB-VP
p1618
s((VO
VO
tVVBP
p1619
tp1620
VB-VP
p1621
s((VB-PP
p1622
VB-NP
p1623
tVEX
p1624
tp1625
VB-NP
p1626
s((VO
VB-VP
p1627
tVCC
p1628
tp1629
VI-VP
p1630
s((VI-NP
p1631
VB-VP
p1632
tVVBP
p1633
tp1634
VB-VP
p1635
s((VB-NP
p1636
VB-VP
p1637
tVRBR
p1638
tp1639
VO
s((VB-NP
p1640
g463
tg464
tp1641
g466
s((VI-NP
p1642
VO
tVPOS
p1643
tp1644
VO
s((VB-NP
p1645
VI-NP
p1646
tVPRP$
p1647
tp1648
g576
s((VB-VP
p1649
VO
tVVBN
p1650
tp1651
VO
s((tg298
tp1652
VO
s((g629
g1583
tVIN
p1653
tp1654
VB-PP
p1655
s((VB-NP
p1656
VB-VP
p1657
tVNNP
p1658
tp1659
VB-NP
p1660
s((VO
VB-PP
p1661
tVJJS
p1662
tp1663
VO
s((tV:
tp1664
VO
s((VO
VB-VP
p1665
tVRP
p1666
tp1667
VO
s((VI-NP
p1668
VI-NP
p1669
tVCC
p1670
tp1671
VO
s((VB-NP
p1672
g538
tV,
tp1673
VO
s((VI-NP
p1674
VB-NP
p1675
tV,
tp1676
VO
s((VO
tVJJR
p1677
tp1678
VB-NP
p1679
s((VI-NP
p1680
VB-PP
p1681
tVVBN
p1682
tp1683
g593
s((VO
VB-NP
p1684
tVPRP$
p1685
tp1686
VI-NP
p1687
s((VB-NP
p1688
VB-NP
p1689
tVRB
p1690
tp1691
VO
s((VB-NP
p1692
tVVB
p1693
tp1694
VB-VP
p1695
s((g404
VB-VP
p1696
tVVB
p1697
tp1698
VI-VP
p1699
s((VO
VB-NP
p1700
tVIN
p1701
tp1702
VB-PP
p1703
s((VO
VO
tVRBR
p1704
tp1705
VO
s((g416
VO
tg319
tp1706
g321
s((VB-VP
p1707
VO
tVVBG
p1708
tp1709
VB-VP
p1710
s((VB-PP
p1711
VB-VP
p1712
tVRB
p1713
tp1714
VO
s((VB-VP
p1715
tVVBP
p1716
tp1717
VO
s((tg405
tp1718
VO
s((VB-NP
p1719
VB-NP
p1720
tVPDT
p1721
tp1722
VB-NP
p1723
s((VB-PP
p1724
tVNNP
p1725
tp1726
VB-NP
p1727
s((VI-VP
p1728
g761
tg762
tp1729
VO
s((VI-NP
p1730
VI-NP
p1731
tV``
p1732
tp1733
VO
s((VI-NP
p1734
VB-NP
p1735
tVCC
p1736
tp1737
VI-NP
p1738
s((VI-PP
p1739
VB-NP
p1740
tVVBN
p1741
tp1742
VI-NP
p1743
s((VB-NP
p1744
VO
tVNNP
p1745
tp1746
VB-NP
p1747
s((VI-NP
p1748
VB-NP
p1749
tVJJS
p1750
tp1751
VI-NP
p1752
s((VI-VP
p1753
VB-NP
p1754
tVVBN
p1755
tp1756
VI-NP
p1757
s((VB-PP
p1758
VI-PP
p1759
tVRB
p1760
tp1761
g113
s((VB-VP
p1762
VB-VP
p1763
tVJJ
p1764
tp1765
VO
s((VB-VP
p1766
VI-VP
p1767
tV,
tp1768
VO
s((tg452
tp1769
g454
s((VB-NP
p1770
VO
tV$
tp1771
VB-NP
p1772
s((VB-PP
p1773
tVJJ
p1774
tp1775
VB-NP
p1776
s((VO
VB-PP
p1777
tVJJ
p1778
tp1779
VB-NP
p1780
s((g1196
VI-VP
p1781
tVCC
p1782
tp1783
VI-VP
p1784
s((VB-NP
p1785
tVDT
p1786
tp1787
VI-NP
p1788
s((VB-NP
p1789
g665
tg666
tp1790
g668
s((VB-NP
p1791
g386
tV(
tp1792
VO
s((VI-VP
p1793
VB-NP
p1794
tVPOS
p1795
tp1796
VB-NP
p1797
s((VB-VP
p1798
VB-NP
p1799
tV``
p1800
tp1801
VI-NP
p1802
s((VI-NP
p1803
VB-VP
p1804
tVVBD
p1805
tp1806
VI-VP
p1807
s((tg495
tp1808
g497
s((VB-PP
p1809
VB-VP
p1810
tVVBG
p1811
tp1812
VI-VP
p1813
s((VB-PP
p1814
VO
tVNN
p1815
tp1816
VB-NP
p1817
s((VI-VP
p1818
VO
tVJJ
p1819
tp1820
VO
s((VB-NP
p1821
g721
tg722
tp1822
VB-VP
p1823
s((VI-PP
p1824
VB-NP
p1825
tVVBG
p1826
tp1827
VI-NP
p1828
s((VI-NP
p1829
VB-NP
p1830
tV``
p1831
tp1832
VI-NP
p1833
s((VI-VP
p1834
VB-NP
p1835
tVVBG
p1836
tp1837
VI-NP
p1838
s((VI-NP
p1839
g741
tg742
tp1840
VO
s((VI-VP
p1841
VO
tVNNP
p1842
tp1843
VB-NP
p1844
s((VB-PP
p1845
g243
tg244
tp1846
VB-PP
p1847
s((VI-NP
p1848
g714
tg715
tp1849
VI-NP
p1850
s((VO
VB-VP
p1851
tVNNP
p1852
tp1853
g780
s((VI-NP
p1854
g1439
tVNN
p1855
tp1856
g637
s((tg772
tp1857
g774
s((VB-NP
p1858
VB-VP
p1859
tVJJR
p1860
tp1861
VB-NP
p1862
s((VI-VP
p1863
VB-NP
p1864
tVTO
p1865
tp1866
g149
s((VB-NP
p1867
VB-NP
p1868
tVNNS
p1869
tp1870
VI-NP
p1871
s((VO
VB-VP
p1872
tVCD
p1873
tp1874
VB-NP
p1875
s((VB-PP
p1876
VB-NP
p1877
tVTO
p1878
tp1879
VB-VP
p1880
s((g150
VO
tVIN
p1881
tp1882
VB-PP
p1883
s((VI-VP
p1884
VB-NP
p1885
tVDT
p1886
tp1887
VB-NP
p1888
s((VB-VP
p1889
g145
tV(
tp1890
VI-VP
p1891
s((VB-VP
p1892
VB-NP
p1893
tVNNS
p1894
tp1895
VI-NP
p1896
s((VI-NP
p1897
VO
tVNN
p1898
tp1899
g186
s((g306
g295
tg296
tp1900
g52
s((VB-NP
p1901
VI-NP
p1902
tVRB
p1903
tp1904
VO
s((VI-VP
p1905
VO
tg368
tp1906
VO
s((VB-VP
p1907
VB-PP
p1908
tVRB
p1909
tp1910
VB-NP
p1911
s((g690
tg691
tp1912
VB-VP
p1913
s((VB-VP
p1914
VB-PP
p1915
tVIN
p1916
tp1917
VB-PP
p1918
s((VB-VP
p1919
VI-VP
p1920
tVVBP
p1921
tp1922
g784
s((VO
VO
tVJJ
p1923
tp1924
VO
s((VB-VP
p1925
VB-NP
p1926
tVPRP$
p1927
tp1928
VB-NP
p1929
s((VO
g686
tg687
tp1930
VB-NP
p1931
s((VB-VP
p1932
g531
tg532
tp1933
g534
s((VB-VP
p1934
VO
tVCC
p1935
tp1936
VO
s((VB-VP
p1937
VI-VP
p1938
tVVBN
p1939
tp1940
g73
s((g1696
VB-VP
p1941
tVIN
p1942
tp1943
VO
s((VI-VP
p1944
VB-VP
p1945
tVIN
p1946
tp1947
VO
s((tg718
tp1948
g720
s((VO
VO
tVJJR
p1949
tp1950
VO
s((VB-PP
p1951
VB-NP
p1952
tV''
p1953
tp1954
VO
s((VB-PP
p1955
VB-PP
p1956
tVJJ
p1957
tp1958
VB-NP
p1959
s((VB-NP
p1960
VB-NP
p1961
tVMD
p1962
tp1963
VB-VP
p1964
s((VB-NP
p1965
g237
tg238
tp1966
VO
s((VB-VP
p1967
tV``
p1968
tp1969
VB-NP
p1970
s((VB-VP
p1971
VB-VP
p1972
tVCC
p1973
tp1974
VO
s((VI-NP
p1975
VB-NP
p1976
tVVBG
p1977
tp1978
VI-NP
p1979
s((VI-NP
p1980
VB-NP
p1981
tVCD
p1982
tp1983
VI-NP
p1984
s((VB-NP
p1985
VO
tVTO
p1986
tp1987
VB-VP
p1988
s((VI-VP
p1989
VB-NP
p1990
tVVB
p1991
tp1992
g350
s((VO
VO
tVWRB
p1993
tp1994
VO
s((g912
VO
tVTO
p1995
tp1996
VB-VP
p1997
s((g1689
VI-NP
p1998
tVNNS
p1999
tp2000
g747
s((VI-NP
p2001
VB-NP
p2002
tVNNS
p2003
tp2004
VI-NP
p2005
s((VO
VO
tVNNS
p2006
tp2007
g1700
s((VI-VP
p2008
VI-VP
p2009
tVVBG
p2010
tp2011
VI-VP
p2012
s((VB-NP
p2013
VB-NP
p2014
tVNN
p2015
tp2016
VI-NP
p2017
s((VB-VP
p2018
g647
tg648
tp2019
VO
s((tVRBR
p2020
tp2021
g828
s((g689
VB-VP
p2022
tVJJ
p2023
tp2024
VO
s((VB-VP
p2025
VO
tVDT
p2026
tp2027
VB-NP
p2028
s((VO
VB-VP
p2029
tVWRB
p2030
tp2031
VO
s((VB-VP
p2032
VB-NP
p2033
tVVBZ
p2034
tp2035
VB-VP
p2036
s((VB-NP
p2037
VI-NP
p2038
tVVBP
p2039
tp2040
VB-VP
p2041
s((VB-VP
p2042
VB-PP
p2043
tVVBN
p2044
tp2045
VB-NP
p2046
s((VB-VP
p2047
VO
tg645
tp2048
VB-NP
p2049
s((g761
g752
tg753
tp2050
VB-VP
p2051
s((VO
tg117
tp2052
g1965
s((VB-PP
p2053
g571
tg66
tp2054
VI-NP
p2055
s((VB-VP
p2056
VB-NP
p2057
tVRBS
p2058
tp2059
g552
s((VB-VP
p2060
VO
tV$
tp2061
VB-NP
p2062
s((VO
tVJJ
p2063
tp2064
VB-NP
p2065
s((VI-NP
p2066
g437
tg438
tp2067
VB-NP
p2068
s((VI-NP
p2069
g1762
tVVBZ
p2070
tp2071
g1763
s((VI-VP
p2072
VB-PP
p2073
tVJJ
p2074
tp2075
VB-NP
p2076
s((VB-VP
p2077
g1316
tVJJR
p2078
tp2079
VI-NP
p2080
s((VB-NP
p2081
g362
tg363
tp2082
g729
s((VO
VO
tV:
tp2083
VO
s((VI-VP
p2084
g847
tg848
tp2085
VI-VP
p2086
s((VI-NP
p2087
VB-NP
p2088
tVRB
p2089
tp2090
VO
s((VO
VO
tg446
tp2091
VO
s((VB-NP
p2092
VO
tVJJR
p2093
tp2094
VO
s((VB-VP
p2095
VB-VP
p2096
tVTO
p2097
tp2098
VB-PP
p2099
s((tVTO
p2100
tp2101
g529
s((VB-VP
p2102
VI-VP
p2103
tVNNS
p2104
tp2105
g259
s((VB-VP
p2106
VO
tVIN
p2107
tp2108
VB-PP
p2109
s((VI-NP
p2110
g675
tg676
tp2111
VO
s((VI-NP
p2112
VB-PP
p2113
tVNNP
p2114
tp2115
g416
s((VO
VO
tVVB
p2116
tp2117
VB-VP
p2118
s((VI-NP
p2119
VO
tVRB
p2120
tp2121
VO
s((g280
g701
tg702
tp2122
g28
s((g210
tV,
tp2123
VO
s((VO
g302
tVDT
p2124
tp2125
VB-NP
p2126
s((VB-PP
p2127
g1134
tVRB
p2128
tp2129
VI-NP
p2130
s((VB-PP
p2131
VB-NP
p2132
tV``
p2133
tp2134
g523
s((VI-VP
p2135
VB-PP
p2136
tVRB
p2137
tp2138
g771
s((VO
VB-PP
p2139
tVVBN
p2140
tp2141
VB-NP
p2142
s((VB-NP
p2143
VI-NP
p2144
tV:
tp2145
VO
s((VB-VP
p2146
VB-PP
p2147
tVNN
p2148
tp2149
VB-NP
p2150
s((VB-VP
p2151
VO
tVNNS
p2152
tp2153
VB-NP
p2154
s((VB-NP
p2155
VB-PP
p2156
tVNNP
p2157
tp2158
VB-NP
p2159
s((VO
VO
tVWDT
p2160
tp2161
VB-NP
p2162
s((VI-VP
p2163
VB-VP
p2164
tVJJR
p2165
tp2166
VI-VP
p2167
s((VI-VP
p2168
VI-VP
p2169
tVRBS
p2170
tp2171
VB-NP
p2172
s((VB-VP
p2173
VB-PP
p2174
tVVB
p2175
tp2176
VB-NP
p2177
s((VB-PP
p2178
VO
tVDT
p2179
tp2180
VB-NP
p2181
s((VB-PP
p2182
VB-NP
p2183
tVRBR
p2184
tp2185
VI-NP
p2186
s((VO
VB-NP
p2187
tVVBG
p2188
tp2189
VI-NP
p2190
s((VB-PP
p2191
VB-NP
p2192
tVVBZ
p2193
tp2194
g377
s((g41
g460
tg461
tp2195
g2053
s((VO
VO
tg455
tp2196
VO
s((VO
VO
tVEX
p2197
tp2198
g75
s((VO
VO
tg470
tp2199
VB-NP
p2200
s((VB-NP
p2201
g478
tg479
tp2202
VB-PP
p2203
s((VI-NP
p2204
g399
tV:
tp2205
VO
s((VI-NP
p2206
VI-NP
p2207
tVRBS
p2208
tp2209
VI-NP
p2210
s((VB-PP
p2211
VB-NP
p2212
tVIN
p2213
tp2214
VB-PP
p2215
s((VB-VP
p2216
VI-VP
p2217
tVEX
p2218
tp2219
VO
s((VI-VP
p2220
VI-VP
p2221
tV``
p2222
tp2223
VO
s((VI-NP
p2224
VB-NP
p2225
tVVBZ
p2226
tp2227
VB-VP
p2228
s((VO
VB-PP
p2229
tVVBG
p2230
tp2231
VB-VP
p2232
s((VB-NP
p2233
VI-NP
p2234
tVRBS
p2235
tp2236
g206
s((VI-NP
p2237
VB-VP
p2238
tVNNP
p2239
tp2240
VB-NP
p2241
s((VO
VB-VP
p2242
tVVB
p2243
tp2244
VI-VP
p2245
s((VO
tVDT
p2246
tp2247
g330
s((VO
g991
tVRB
p2248
tp2249
VB-NP
p2250
s((g281
g103
tg104
tp2251
VB-PP
p2252
s((VI-NP
p2253
VB-NP
p2254
tV#
tp2255
VO
s((VI-VP
p2256
VO
tVVB
p2257
tp2258
VB-VP
p2259
s((VO
VB-PP
p2260
tVVB
p2261
tp2262
VB-NP
p2263
s((VB-PP
p2264
VI-PP
p2265
tVIN
p2266
tp2267
VI-PP
p2268
s((VO
VB-NP
p2269
tVRBR
p2270
tp2271
VI-NP
p2272
s((VI-NP
p2273
g791
tg792
tp2274
VO
s((VO
VO
tVIN
p2275
tp2276
g306
s((VB-VP
p2277
g322
tg323
tp2278
g325
s((VB-NP
p2279
VI-NP
p2280
tVIN
p2281
tp2282
g414
s((VI-NP
p2283
VO
tVVB
p2284
tp2285
VB-VP
p2286
s((VB-NP
p2287
VO
tVVBZ
p2288
tp2289
g777
s((VB-NP
p2290
VB-PP
p2291
tVVB
p2292
tp2293
g2132
s((VI-PP
p2294
VB-NP
p2295
tVJJ
p2296
tp2297
VI-NP
p2298
s((VB-VP
p2299
VB-VP
p2300
tVRBS
p2301
tp2302
VO
s((VB-NP
p2303
VO
tVVBD
p2304
tp2305
VB-VP
p2306
s((VO
g610
tVTO
p2307
tp2308
g180
s((VO
VB-NP
p2309
tVMD
p2310
tp2311
g83
s((VO
VB-PP
p2312
tVDT
p2313
tp2314
VB-NP
p2315
s((VI-NP
p2316
VI-NP
p2317
tVVBG
p2318
tp2319
VB-VP
p2320
s((VB-VP
p2321
VO
tVVBP
p2322
tp2323
VB-VP
p2324
s((VO
VB-NP
p2325
tV``
p2326
tp2327
VI-NP
p2328
s((g1199
VO
tg328
tp2329
VB-NP
p2330
s((VI-VP
p2331
VO
tVJJR
p2332
tp2333
VO
s((VB-NP
p2334
VI-NP
p2335
tVEX
p2336
tp2337
g678
s((VO
VB-PP
p2338
tVVBZ
p2339
tp2340
VB-NP
p2341
s((VO
VB-VP
p2342
tVJJR
p2343
tp2344
VB-NP
p2345
s((VB-NP
p2346
g733
tg734
tp2347
g736
s((VB-NP
p2348
VO
tVCD
p2349
tp2350
VB-NP
p2351
s((VO
g802
tV(
tp2352
VO
s((VO
VB-VP
p2353
tVVBD
p2354
tp2355
g176
s((VB-VP
p2356
VO
tVPDT
p2357
tp2358
VB-NP
p2359
s((VI-VP
p2360
VI-VP
p2361
tVCD
p2362
tp2363
VB-NP
p2364
s((VB-VP
p2365
g626
tVIN
p2366
tp2367
VB-PP
p2368
s((VI-NP
p2369
VB-PP
p2370
tVJJ
p2371
tp2372
g280
s((VO
VB-VP
p2373
tVRBR
p2374
tp2375
VO
s((VB-NP
p2376
VO
tVNNS
p2377
tp2378
VB-NP
p2379
s((VI-VP
p2380
VI-VP
p2381
tVNN
p2382
tp2383
g165
s((VO
VO
tVNN
p2384
tp2385
VB-NP
p2386
s((VB-NP
p2387
VB-PP
p2388
tVTO
p2389
tp2390
VB-PP
p2391
s((g505
tg506
tp2392
VB-VP
p2393
s((VB-NP
p2394
tVCD
p2395
tp2396
VI-NP
p2397
s((VI-VP
p2398
g159
tg160
tp2399
VB-NP
p2400
s((VI-NP
p2401
VI-NP
p2402
tVVBN
p2403
tp2404
g755
s((VI-VP
p2405
g798
tg799
tp2406
VB-PP
p2407
s((VB-NP
p2408
tV``
p2409
tp2410
VI-NP
p2411
s((VB-NP
p2412
VB-PP
p2413
tVNN
p2414
tp2415
VB-NP
p2416
s((VI-NP
p2417
VB-NP
p2418
tVVBN
p2419
tp2420
g732
s((VI-NP
p2421
g785
tg786
tp2422
g788
s((VI-NP
p2423
VB-VP
p2424
tVVBG
p2425
tp2426
g154
s((VI-VP
p2427
VO
tVRB
p2428
tp2429
VO
s((VB-NP
p2430
VB-NP
p2431
tVJJR
p2432
tp2433
VI-NP
p2434
s((VB-PP
p2435
VB-NP
p2436
tVVBD
p2437
tp2438
VB-VP
p2439
s((VI-VP
p2440
g150
tg151
tp2441
g41
s((VB-PP
p2442
g216
tg217
tp2443
g219
s((VO
VO
tg489
tp2444
VO
s((VB-PP
p2445
VI-PP
p2446
tVJJ
p2447
tp2448
g570
s((VI-NP
p2449
VO
tg764
tp2450
VO
s((VI-VP
p2451
VI-VP
p2452
tVVBZ
p2453
tp2454
VB-VP
p2455
s((VI-NP
p2456
g744
tg745
tp2457
VI-NP
p2458
s((VI-VP
p2459
VI-VP
p2460
tVRBR
p2461
tp2462
VO
s((VB-VP
p2463
VO
tVJJR
p2464
tp2465
VO
s((VB-PP
p2466
tVRB
p2467
tp2468
VB-NP
p2469
s((VB-NP
p2470
tVVBZ
p2471
tp2472
VB-VP
p2473
s((VB-NP
p2474
VB-VP
p2475
tVVB
p2476
tp2477
VI-VP
p2478
s((VO
VB-PP
p2479
tVCC
p2480
tp2481
VI-PP
p2482
s((VB-NP
p2483
VB-NP
p2484
tVJJ
p2485
tp2486
VI-NP
p2487
s((VB-PP
p2488
VO
tVVBD
p2489
tp2490
VB-VP
p2491
s((VB-NP
p2492
g613
tg614
tp2493
VI-NP
p2494
s((VI-VP
p2495
VB-PP
p2496
tV``
p2497
tp2498
VO
s((tVNNS
p2499
tp2500
g622
s((VB-NP
p2501
VO
tVRB
p2502
tp2503
VO
s((VO
tVVBP
p2504
tp2505
VB-VP
p2506
s((VB-PP
p2507
VB-VP
p2508
tVCC
p2509
tp2510
g122
s((VI-VP
p2511
VO
tVTO
p2512
tp2513
VB-VP
p2514
s((VB-VP
p2515
VO
tVJJ
p2516
tp2517
VO
s((VB-VP
p2518
VB-PP
p2519
tVVBG
p2520
tp2521
g1712
s((VB-VP
p2522
g1269
tVJJ
p2523
tp2524
VB-NP
p2525
s((VO
tVVBN
p2526
tp2527
VB-VP
p2528
s((VI-VP
p2529
g824
tV,
tp2530
VO
s((VI-VP
p2531
g563
tg564
tp2532
g566
s((VB-NP
p2533
VB-NP
p2534
tVNNP
p2535
tp2536
VI-NP
p2537
s((VB-NP
p2538
VI-NP
p2539
tV$
tp2540
VI-NP
p2541
s((VO
VB-NP
p2542
tVNNP
p2543
tp2544
VI-NP
p2545
s((VB-NP
p2546
tVPRP
p2547
tp2548
VB-NP
p2549
s((VB-VP
p2550
VO
tg606
tp2551
VB-NP
p2552
s((VO
VB-VP
p2553
tVVBZ
p2554
tp2555
g605
s((VB-VP
p2556
VB-PP
p2557
tVTO
p2558
tp2559
VB-PP
p2560
s((VB-NP
p2561
VB-PP
p2562
tVVBG
p2563
tp2564
VB-VP
p2565
s((VB-VP
p2566
VO
tVNN
p2567
tp2568
VB-NP
p2569
s((VI-NP
p2570
VI-NP
p2571
tV$
tp2572
g290
s((VI-NP
p2573
VB-PP
p2574
tV``
p2575
tp2576
VO
s((VI-NP
p2577
g123
tg124
tp2578
VO
s((VI-VP
p2579
VB-VP
p2580
tVVBG
p2581
tp2582
VI-VP
p2583
s((VI-PP
p2584
VB-NP
p2585
tVDT
p2586
tp2587
VB-NP
p2588
s((VB-VP
p2589
VO
tV``
p2590
tp2591
VO
s((VB-NP
p2592
VB-VP
p2593
tVDT
p2594
tp2595
g807
s((VI-VP
p2596
VB-PP
p2597
tVCC
p2598
tp2599
VO
s((tg766
tp2600
VO
s((VI-VP
p2601
VO
tVVBD
p2602
tp2603
VB-VP
p2604
s((VI-NP
p2605
g1770
tVJJ
p2606
tp2607
VI-NP
p2608
s((VI-NP
p2609
g187
tg188
tp2610
g190
s((VB-PP
p2611
VB-NP
p2612
tVDT
p2613
tp2614
VB-NP
p2615
s((VB-VP
p2616
VB-NP
p2617
tVVBP
p2618
tp2619
VB-VP
p2620
s((g601
g1325
tVTO
p2621
tp2622
VI-VP
p2623
s((VI-VP
p2624
VB-NP
p2625
tVJJR
p2626
tp2627
VI-NP
p2628
s((VO
g594
tg595
tp2629
VI-VP
p2630
s((VI-NP
p2631
VB-NP
p2632
tVTO
p2633
tp2634
VI-NP
p2635
s((VI-VP
p2636
VI-VP
p2637
tVVB
p2638
tp2639
g32
s((VB-NP
p2640
VI-NP
p2641
tVJJ
p2642
tp2643
g717
s((VI-VP
p2644
VB-NP
p2645
tVWRB
p2646
tp2647
VO
s((VI-VP
p2648
VI-VP
p2649
tVJJ
p2650
tp2651
g103
s((VB-VP
p2652
g430
tg431
tp2653
VO
s((VB-VP
p2654
VB-PP
p2655
tVJJ
p2656
tp2657
VB-NP
p2658
s((VI-NP
p2659
VO
tVJJ
p2660
tp2661
VB-NP
p2662
s((VB-NP
p2663
tVRBR
p2664
tp2665
VI-NP
p2666
s((g555
g37
tg27
tp2667
VI-VP
p2668
s((g2014
VB-NP
p2669
tVVBN
p2670
tp2671
VB-VP
p2672
s((VI-VP
p2673
VB-NP
p2674
tV,
tp2675
VO
s((VO
VB-NP
p2676
tVVBN
p2677
tp2678
VI-NP
p2679
s((VI-NP
p2680
VI-NP
p2681
tVMD
p2682
tp2683
g724
s((VI-NP
p2684
VO
tVVBZ
p2685
tp2686
g1069
s((VB-PP
p2687
VO
tVRB
p2688
tp2689
VO
s((VB-VP
p2690
VB-PP
p2691
tVNNP
p2692
tp2693
VB-NP
p2694
s((VB-PP
p2695
VB-NP
p2696
tV(
tp2697
VO
s((VB-PP
p2698
VO
tV$
tp2699
VO
s((VB-PP
p2700
VB-VP
p2701
tVJJR
p2702
tp2703
VB-NP
p2704
s((VB-NP
p2705
tVJJR
p2706
tp2707
VI-NP
p2708
s((VB-NP
p2709
VB-VP
p2710
tV''
p2711
tp2712
VO
s((VB-VP
p2713
tVRB
p2714
tp2715
VO
s((VB-NP
p2716
tVTO
p2717
tp2718
VB-VP
p2719
s((VB-NP
p2720
tVJJ
p2721
tp2722
VI-NP
p2723
s((VI-VP
p2724
g524
tg525
tp2725
VO
s((VO
VB-VP
p2726
tVRB
p2727
tp2728
VI-VP
p2729
s((VO
VO
tg650
tp2730
VB-NP
p2731
s((VB-PP
p2732
VB-NP
p2733
tVCD
p2734
tp2735
g513
s((VI-NP
p2736
g407
tg408
tp2737
g410
s((VI-PP
p2738
VB-NP
p2739
tVNN
p2740
tp2741
VI-NP
p2742
s((VB-NP
p2743
VB-VP
p2744
tVVBN
p2745
tp2746
VI-VP
p2747
s((VB-VP
p2748
VO
tVMD
p2749
tp2750
VB-VP
p2751
s((g724
VI-VP
p2752
tVTO
p2753
tp2754
VI-VP
p2755
s((VB-NP
p2756
g2515
tVRB
p2757
tp2758
VI-VP
p2759
s((VO
VO
tVVBD
p2760
tp2761
g54
s((VB-NP
p2762
VB-NP
p2763
tVRBS
p2764
tp2765
VO
s((VB-PP
p2766
VO
tVNNS
p2767
tp2768
VB-NP
p2769
s((VI-NP
p2770
VO
tg467
tp2771
g469
s((VI-NP
p2772
VB-VP
p2773
tVPDT
p2774
tp2775
g589
s((VB-VP
p2776
VB-NP
p2777
tVVBN
p2778
tp2779
VI-NP
p2780
s((VI-NP
p2781
VO
tVNNS
p2782
tp2783
VB-NP
p2784
s((VO
g106
tg107
tp2785
VI-VP
p2786
s((VB-VP
p2787
g351
tg352
tp2788
g354
s((VB-PP
p2789
VO
tg627
tp2790
VO
s((VB-VP
p2791
VB-NP
p2792
tVVB
p2793
tp2794
VB-VP
p2795
s((VB-PP
p2796
VB-NP
p2797
tVPRP
p2798
tp2799
g689
s((VB-NP
p2800
VB-NP
p2801
tVDT
p2802
tp2803
VI-NP
p2804
s((VB-VP
p2805
VO
tVRB
p2806
tp2807
VO
s((VB-PP
p2808
VO
tVVBN
p2809
tp2810
VB-PP
p2811
s((VO
tVVB
p2812
tp2813
VB-VP
p2814
s((VB-VP
p2815
g448
tg449
tp2816
VB-NP
p2817
s((VO
tVTO
p2818
tp2819
VB-PP
p2820
s((VB-PP
p2821
VB-NP
p2822
tVPRP$
p2823
tp2824
VI-NP
p2825
s((VI-NP
p2826
VI-NP
p2827
tV,
tp2828
VO
s((VB-NP
p2829
g85
tg547
tp2830
VO
s((VO
g374
tg375
tp2831
VB-VP
p2832
s((VI-NP
p2833
VO
tVVBN
p2834
tp2835
g610
s((VI-VP
p2836
VB-NP
p2837
tVNNP
p2838
tp2839
VI-NP
p2840
s((VI-VP
p2841
VI-VP
p2842
tVWDT
p2843
tp2844
VB-NP
p2845
s((VI-NP
p2846
VB-VP
p2847
tVIN
p2848
tp2849
g481
s((VB-VP
p2850
g365
tg366
tp2851
VO
s((VI-NP
p2852
g573
tg574
tp2853
VI-NP
p2854
s((VI-PP
p2855
VB-NP
p2856
tVIN
p2857
tp2858
VB-PP
p2859
s((VI-VP
p2860
VB-NP
p2861
tVRBR
p2862
tp2863
VO
s((VI-NP
p2864
VB-PP
p2865
tVRB
p2866
tp2867
VB-NP
p2868
s((VO
VB-VP
p2869
tV,
tp2870
VO
s((VB-VP
p2871
tVJJR
p2872
tp2873
VO
s((VB-VP
p2874
VO
tVVBZ
p2875
tp2876
VB-VP
p2877
s((g2139
VO
tVTO
p2878
tp2879
VB-VP
p2880
s((VI-NP
p2881
VB-VP
p2882
tVNNS
p2883
tp2884
VB-NP
p2885
s((VI-NP
p2886
VI-NP
p2887
tV.
tp2888
VO
s((VO
VB-VP
p2889
tVNN
p2890
tp2891
VB-NP
p2892
s((VO
VO
tVTO
p2893
tp2894
g302
s((VB-NP
p2895
VB-VP
p2896
tVVBZ
p2897
tp2898
VB-VP
p2899
s((VB-NP
p2900
g491
tg492
tp2901
g494
s((VB-VP
p2902
VB-PP
p2903
tVDT
p2904
tp2905
VB-NP
p2906
s((VB-VP
p2907
VB-NP
p2908
tVJJ
p2909
tp2910
VI-NP
p2911
s((VO
tVRB
p2912
tp2913
VO
s((VB-VP
p2914
VO
tVCD
p2915
tp2916
g472
s((g999
g1002
tVNN
p2917
tp2918
g294
s((VO
g1688
tV,
tp2919
VO
s((VO
tVVBG
p2920
tp2921
VB-VP
p2922
s((VB-NP
p2923
VO
tVVBG
p2924
tp2925
VB-VP
p2926
s((VI-NP
p2927
g616
tg617
tp2928
VB-NP
p2929
s((VI-NP
p2930
VB-PP
p2931
tVJJR
p2932
tp2933
VB-NP
p2934
s((VI-NP
p2935
VO
tVIN
p2936
tp2937
VB-PP
p2938
s((VO
VB-NP
p2939
tVCC
p2940
tp2941
VO
s((VB-VP
p2942
tVIN
p2943
tp2944
VB-PP
p2945
s((VB-NP
p2946
VB-VP
p2947
tVNN
p2948
tp2949
VB-NP
p2950
s((VB-NP
p2951
VB-VP
p2952
tVRBS
p2953
tp2954
VI-VP
p2955
s((VB-NP
p2956
g420
tg421
tp2957
g423
s((VI-VP
p2958
VB-NP
p2959
tVCC
p2960
tp2961
VI-NP
p2962
s((VI-NP
p2963
g808
tg809
tp2964
VO
s((VB-VP
p2965
VI-VP
p2966
tVCC
p2967
tp2968
g395
s((g2315
g220
tg221
tp2969
g63
s((g113
g116
tVIN
p2970
tp2971
VB-PP
p2972
s((VB-VP
p2973
g370
tg371
tp2974
g373
s((VO
tVJJS
p2975
tp2976
VB-NP
p2977
s((VB-NP
p2978
tVVBP
p2979
tp2980
VB-VP
p2981
s((VB-VP
p2982
VI-VP
p2983
tVVBD
p2984
tp2985
VI-VP
p2986
s((VI-NP
p2987
g748
tg749
tp2988
VO
s((VB-NP
p2989
tVCC
p2990
tp2991
VI-NP
p2992
s((VB-PP
p2993
VB-NP
p2994
tVMD
p2995
tp2996
VB-VP
p2997
s((VB-PP
p2998
tVTO
p2999
tp3000
g801
s((VB-VP
p3001
VB-NP
p3002
tVVBG
p3003
tp3004
VI-NP
p3005
s((VI-NP
p3006
VO
tVMD
p3007
tp3008
g265
s((tVJJ
p3009
tp3010
g585
s((VO
VO
tVRBS
p3011
tp3012
g242
s((VB-VP
p3013
VB-NP
p3014
tVRBR
p3015
tp3016
g846
s((VI-NP
p3017
VI-NP
p3018
tVNNPS
p3019
tp3020
VI-NP
p3021
s((VI-VP
p3022
VB-PP
p3023
tVVBZ
p3024
tp3025
VB-VP
p3026
s((VI-VP
p3027
VB-NP
p3028
tVCD
p3029
tp3030
VI-NP
p3031
s((VB-NP
p3032
VO
tVVB
p3033
tp3034
g177
s((VB-NP
p3035
VB-NP
p3036
tVVBG
p3037
tp3038
VI-NP
p3039
s((VI-VP
p3040
VI-VP
p3041
tVTO
p3042
tp3043
g271
s((VO
VB-PP
p3044
tVNN
p3045
tp3046
g295
s((VO
VO
tVMD
p3047
tp3048
VB-VP
p3049
s((VB-NP
p3050
g303
tg304
tp3051
g81
s((VB-NP
p3052
g2698
tVDT
p3053
tp3054
g47
s((VO
VB-PP
p3055
tV``
p3056
tp3057
VO
s((VB-VP
p3058
VI-VP
p3059
tVNNP
p3060
tp3061
VB-NP
p3062
s((VI-VP
p3063
g669
tg670
tp3064
VO
s((VI-PP
p3065
VB-VP
p3066
tVRB
p3067
tp3068
VO
s((VB-NP
p3069
VB-NP
p3070
tVTO
p3071
tp3072
VI-NP
p3073
s((VB-VP
p3074
VB-VP
p3075
tVRB
p3076
tp3077
VI-VP
p3078
s((VB-NP
p3079
g2962
tVDT
p3080
tp3081
VB-NP
p3082
s((VB-PP
p3083
VB-VP
p3084
tVJJ
p3085
tp3086
VB-NP
p3087
s((VB-NP
p3088
g194
tg195
tp3089
VB-VP
p3090
s((VB-VP
p3091
tVJJ
p3092
tp3093
VB-NP
p3094
s((VB-PP
p3095
VB-PP
p3096
tVVBG
p3097
tp3098
VB-VP
p3099
s((VB-VP
p3100
VI-VP
p3101
tVVBG
p3102
tp3103
g836
s((VI-PP
p3104
VO
tVVBP
p3105
tp3106
VO
s((VB-NP
p3107
tVRB
p3108
tp3109
VO
s((VB-VP
p3110
VB-NP
p3111
tVTO
p3112
tp3113
VB-PP
p3114
s((VI-VP
p3115
g226
tVJJ
p3116
tp3117
VB-NP
p3118
s((VB-VP
p3119
VB-PP
p3120
tVCC
p3121
tp3122
VI-PP
p3123
s((VB-PP
p3124
VB-VP
p3125
tVVBD
p3126
tp3127
VI-VP
p3128
s((VI-PP
p3129
VO
tVJJ
p3130
tp3131
VB-NP
p3132
s((VO
VO
tg331
tp3133
VB-VP
p3134
s((VB-VP
p3135
VB-NP
p3136
tVDT
p3137
tp3138
VI-NP
p3139
s((VI-VP
p3140
VI-VP
p3141
tVVBP
p3142
tp3143
VI-VP
p3144
s((VO
g274
tg275
tp3145
g30
s((VI-NP
p3146
VO
tVVBP
p3147
tp3148
g2522
s((VI-NP
p3149
g623
tg624
tp3150
VO
s((g1724
VB-VP
p3151
tVIN
p3152
tp3153
VB-PP
p3154
s((VI-NP
p3155
g598
tg599
tp3156
VB-NP
p3157
s((VO
tg822
tp3158
VB-PP
p3159
s((VB-VP
p3160
g223
tg224
tp3161
VI-VP
p3162
s((VB-NP
p3163
VB-NP
p3164
tVVBZ
p3165
tp3166
VB-VP
p3167
s((VB-PP
p3168
VB-NP
p3169
tVVBG
p3170
tp3171
g172
s((g535
tg536
tp3172
VI-NP
p3173
s((g732
VI-NP
p3174
tVTO
p3175
tp3176
VB-VP
p3177
s((VB-NP
p3178
VB-VP
p3179
tV``
p3180
tp3181
VO
s((VI-VP
p3182
VB-VP
p3183
tV``
p3184
tp3185
VI-VP
p3186
ssb.