ccopy_reg
_reconstructor
p1
(cnltk.tag.sequential
TrigramTagger
p2
c__builtin__
object
p3
NtRp4
(dp5
S'_taggers'
p6
(lp7
g4
ag1
(cnltk.tag.sequential
BigramTagger
p8
g3
NtRp9
(dp10
g6
(lp11
g9
ag1
(cnltk.tag.sequential
UnigramTagger
p12
g3
NtRp13
(dp14
g6
(lp15
g13
ag1
(cnltk.tag.sequential
DefaultTagger
p16
g3
NtRp17
(dp18
g6
(lp19
g17
asS'_tag'
p20
S'NN'
p21
sbasS'_n'
p22
I1
sS'_context_to_tag'
p23
(dp24
VPRP$
p25
VB-NP
p26
sVVBG
p27
VO
sVFW
p28
VB-NP
p29
sVIN
p30
VO
sVVBN
p31
VO
sV,
VO
sV''
p32
VO
sVVBP
p33
VO
sVWDT
p34
VB-NP
p35
sVJJ
p36
VI-NP
p37
sVWP
p38
VB-NP
p39
sVVBZ
p40
VO
sVDT
p41
VB-NP
p42
sV#
VB-NP
p43
sVRP
p44
VO
sV$
VB-NP
p45
sVNN
p46
VI-NP
p47
sV)
VO
sV(
VO
sVVBD
p48
VO
sVPOS
p49
VI-NP
p50
sV.
VO
sVTO
p51
VO
sVPRP
p52
VB-NP
p53
sVRB
p54
VO
sV:
VO
sVNNS
p55
VI-NP
p56
sVNNP
p57
VI-NP
p58
sV``
p59
VO
sVWRB
p60
VO
sVCC
p61
VO
sVLS
p62
VB-NP
p63
sVPDT
p64
VB-NP
p65
sVRBS
p66
VI-NP
p67
sVRBR
p68
VO
sVCD
p69
VI-NP
p70
sVEX
p71
VB-NP
p72
sVVBG|NN
p73
VB-NP
p74
sVWP$
p75
VB-NP
p76
sVMD
p77
VO
sVNNPS
p78
VI-NP
p79
sVJJS
p80
VI-NP
p81
sVJJR
p82
VO
sVSYM
p83
VO
sVVB
p84
VO
sVUH
p85
VO
ssbag17
asg22
I2
sg23
(dp86
((tVVBD
p87
tp88
VO
s((VB-NP
p89
tVIN
p90
tp91
VO
s((VI-NP
p92
tVRB
p93
tp94
VO
s((VB-NP
p95
tVJJR
p96
tp97
VI-NP
p98
s((tg57
tp99
VB-NP
p100
s((VB-NP
p101
tVJJ
p102
tp103
g37
s((VI-NP
p104
tVVB
p105
tp106
VO
s((VI-NP
p107
tVJJS
p108
tp109
VI-NP
p110
s((tVNNPS
p111
tp112
VB-NP
p113
s((VB-NP
p114
tVVBG
p115
tp116
VO
s((VI-NP
p117
tVPRP
p118
tp119
VB-NP
p120
s((VO
tVNN
p121
tp122
VB-NP
p123
s((VB-NP
p124
tVEX
p125
tp126
VI-NP
p127
s((tV''
p128
tp129
VO
s((VI-NP
p130
tVFW
p131
tp132
VO
s((tVVBN
p133
tp134
VO
s((VI-NP
p135
tVRBS
p136
tp137
VI-NP
p138
s((VO
tg78
tp139
VB-NP
p140
s((VI-NP
p141
tVNNP
p142
tp143
VI-NP
p144
s((tVDT
p145
tp146
VB-NP
p147
s((VI-NP
p148
tV$
tp149
VI-NP
p150
s((tVVB
p151
tp152
VO
s((VO
tV(
tp153
VO
s((VO
tVRP
p154
tp155
VO
s((VI-NP
p156
tVWDT
p157
tp158
VB-NP
p159
s((tVLS
p160
tp161
VB-NP
p162
s((VO
tVVB
p163
tp164
VO
s((VB-NP
p165
tVNN
p166
tp167
g47
s((tV:
tp168
VO
s((VO
tVJJ
p169
tp170
VB-NP
p171
s((VO
tVJJR
p172
tp173
VB-NP
p174
s((VO
tVDT
p175
tp176
g42
s((VO
tVPOS
p177
tp178
VB-NP
p179
s((tVJJ
p180
tp181
VB-NP
p182
s((VB-NP
p183
tVVB
p184
tp185
VO
s((VB-NP
p186
tVWP
p187
tp188
VB-NP
p189
s((VB-NP
p190
tVPDT
p191
tp192
VI-NP
p193
s((tVJJR
p194
tp195
VB-NP
p196
s((VB-NP
p197
tVPOS
p198
tp199
g50
s((VI-NP
p200
tV(
tp201
VO
s((VB-NP
p202
tVVBD
p203
tp204
VO
s((VI-NP
p205
tV:
tp206
VO
s((VO
tV,
tp207
VO
s((VO
tV:
tp208
VO
s((tVNN
p209
tp210
VB-NP
p211
s((VI-NP
p212
tVPOS
p213
tp214
VI-NP
p215
s((VI-NP
p216
tVRP
p217
tp218
VO
s((VO
tVRB
p219
tp220
VO
s((tVVBZ
p221
tp222
VO
s((VO
tV``
p223
tp224
VO
s((VO
tVVBZ
p225
tp226
VO
s((VI-NP
p227
tVWP
p228
tp229
g39
s((VO
tVVBG
p230
tp231
VO
s((VO
tg69
tp232
VB-NP
p233
s((VB-NP
p234
tVDT
p235
tp236
VB-NP
p237
s((VI-NP
p238
tg75
tp239
VI-NP
p240
s((VO
tV#
tp241
g43
s((VO
tV''
p242
tp243
VO
s((VB-NP
p244
tVMD
p245
tp246
VO
s((VO
tVVBD
p247
tp248
VO
s((VB-NP
p249
tVCD
p250
tp251
g141
s((VI-NP
p252
tVNN
p253
tp254
VI-NP
p255
s((VI-NP
p256
tVTO
p257
tp258
VO
s((VO
tVJJS
p259
tp260
VB-NP
p261
s((VI-NP
p262
tVVBZ
p263
tp264
VO
s((VB-NP
p265
tVNNP
p266
tp267
g58
s((VI-NP
p268
tVVBD
p269
tp270
VO
s((VB-NP
p271
tVVBP
p272
tp273
VO
s((VI-NP
p274
tVCC
p275
tp276
VO
s((VB-NP
p277
tVRBS
p278
tp279
g67
s((VO
tVNNS
p280
tp281
VB-NP
p282
s((VO
tVCC
p283
tp284
VO
s((VB-NP
p285
tVWDT
p286
tp287
g35
s((tVVBG
p288
tp289
VO
s((VB-NP
p290
tVCC
p291
tp292
VO
s((VI-NP
p293
tVPRP$
p294
tp295
VI-NP
p296
s((tVJJS
p297
tp298
VO
s((VB-NP
p299
tV''
p300
tp301
VO
s((VB-NP
p302
tV$
tp303
VI-NP
p304
s((tVRBS
p305
tp306
VO
s((VB-NP
p307
tVVBZ
p308
tp309
VO
s((VB-NP
p310
tVJJS
p311
tp312
g81
s((tVNNS
p313
tp314
VB-NP
p315
s((VO
tVVBP
p316
tp317
VO
s((VI-NP
p318
tV''
p319
tp320
VO
s((VB-NP
p321
tVPRP$
p322
tp323
VI-NP
p324
s((VO
tVPDT
p325
tp326
g65
s((VI-NP
p327
tV.
tp328
VO
s((VO
tVVBN
p329
tp330
VO
s((VI-NP
p331
tVJJR
p332
tp333
VO
s((VO
tVNNP
p334
tp335
VB-NP
p336
s((VB-NP
p337
tVWP$
p338
tp339
VI-NP
p340
s((VI-NP
p341
tVVBP
p342
tp343
VO
s((VB-NP
p344
tVPRP
p345
tp346
VB-NP
p347
s((VB-NP
p348
tg28
tp349
VI-NP
p350
s((VI-NP
p351
tVDT
p352
tp353
VB-NP
p354
s((VI-NP
p355
tg27
tp356
VO
s((tVCD
p357
tp358
VB-NP
p359
s((VO
tg66
tp360
VO
s((g56
tg36
tp361
VI-NP
p362
s((VI-NP
p363
tVRBR
p364
tp365
VO
s((VI-NP
p366
tVMD
p367
tp368
VO
s((g354
tVVBN
p369
tp370
VI-NP
p371
s((VI-NP
p372
tg62
tp373
VO
s((VI-NP
p374
tVNNS
p375
tp376
VI-NP
p377
s((VI-NP
p378
tVVBN
p379
tp380
VO
s((VB-NP
p381
tVRB
p382
tp383
VO
s((VO
tVRBR
p384
tp385
VO
s((tVRB
p386
tp387
VO
s((VI-NP
p388
tVIN
p389
tp390
VO
s((VB-NP
p391
tV:
tp392
VO
s((VO
tVWDT
p393
tp394
VB-NP
p395
s((VI-NP
p396
tVWRB
p397
tp398
VO
s((VO
tVUH
p399
tp400
VB-NP
p401
s((VB-NP
p402
tVNNS
p403
tp404
g56
s((VO
tVIN
p405
tp406
VO
s((VI-NP
p407
tVNNPS
p408
tp409
g79
s((tVRBR
p410
tp411
VO
s((VB-NP
p412
tVRBR
p413
tp414
VI-NP
p415
s((tVPRP
p416
tp417
VB-NP
p418
ssbag13
ag17
asg22
I3
sg23
(dp419
((VB-NP
p420
g341
tg342
tp421
VO
s((tg87
tp422
VO
s((VO
VO
tg219
tp423
VO
s((VI-NP
p424
VO
tg225
tp425
VO
s((VO
VO
tg163
tp426
VO
s((VO
g249
tg250
tp427
g141
s((VI-NP
p428
VI-NP
p429
tVNNP
p430
tp431
g144
s((VB-NP
p432
g378
tg379
tp433
VO
s((VO
VO
tg329
tp434
VO
s((VB-NP
p435
VI-NP
p436
tVWRB
p437
tp438
VO
s((VI-NP
p439
g274
tg275
tp440
VO
s((VI-NP
p441
g424
tVWDT
p442
tp443
g159
s((VO
VB-NP
p444
tVRBS
p445
tp446
g67
s((VB-NP
p447
tVJJ
p448
tp449
VI-NP
p450
s((VB-NP
p451
g212
tg213
tp452
g215
s((VI-NP
p453
g200
tV(
tp454
VO
s((VB-NP
p455
VO
tVJJ
p456
tp457
VB-NP
p458
s((VB-NP
p459
tVVBG
p460
tp461
VI-NP
p462
s((VO
g282
tVVBN
p463
tp464
VI-NP
p465
s((VB-NP
p466
VO
tVNN
p467
tp468
VB-NP
p469
s((VB-NP
p470
VO
tVJJR
p471
tp472
VB-NP
p473
s((VI-NP
p474
VO
tg325
tp475
g65
s((tg128
tp476
VO
s((VO
g310
tg311
tp477
g81
s((VI-NP
p478
VO
tVJJR
p479
tp480
VB-NP
p481
s((VB-NP
p482
g262
tg263
tp483
VO
s((VO
g234
tg235
tp484
g237
s((VO
VO
tVJJS
p485
tp486
g261
s((VI-NP
p487
VI-NP
p488
tVDT
p489
tp490
VB-NP
p491
s((VI-NP
p492
VO
tVRB
p493
tp494
VO
s((VB-NP
p495
g355
tg27
tp496
VO
s((VO
VO
tVVBZ
p497
tp498
VO
s((VI-NP
p499
VO
tVVBG
p500
tp501
VO
s((VI-NP
p502
VO
tV,
tp503
VO
s((VB-NP
p504
g205
tV:
tp505
VO
s((tg145
tp506
g147
s((VO
VO
tg283
tp507
VO
s((VO
VO
tg393
tp508
VB-NP
p509
s((tg151
tp510
VO
s((VB-NP
p511
VO
tV(
tp512
VO
s((VB-NP
p513
tVVBN
p514
tp515
VI-NP
p516
s((VB-NP
p517
g327
tV.
tp518
VO
s((VO
g391
tV:
tp519
VO
s((VO
g101
tg102
tp520
g37
s((VB-NP
p521
VO
tV:
tp522
VO
s((VO
g183
tg184
tp523
VO
s((VO
VO
tVVBP
p524
tp525
VO
s((g256
g104
tg105
tp526
VO
s((VO
VO
tVNNP
p527
tp528
VB-NP
p529
s((VI-NP
p530
g388
tg389
tp531
VO
s((VO
g271
tg272
tp532
VO
s((g156
VO
tg247
tp533
VO
s((VB-NP
p534
VI-NP
p535
tVWP
p536
tp537
g39
s((VO
tVVB
p538
tp539
VO
s((VI-NP
p540
g252
tg253
tp541
VI-NP
p542
s((g200
VB-NP
p543
tVCD
p544
tp545
VI-NP
p546
s((VI-NP
p547
VI-NP
p548
tV:
tp549
VO
s((VB-NP
p550
tVNN
p551
tp552
VI-NP
p553
s((VB-NP
p554
VO
tVVBN
p555
tp556
VO
s((VO
g381
tg382
tp557
VO
s((VI-NP
p558
VO
tVNNP
p559
tp560
VB-NP
p561
s((VB-NP
p562
VI-NP
p563
tVCC
p564
tp565
VO
s((tV:
tp566
VO
s((VO
g307
tg308
tp567
VO
s((VO
tVJJ
p568
tp569
VB-NP
p570
s((VI-NP
p571
VO
tVVBN
p572
tp573
VO
s((VO
tVJJR
p574
tp575
VB-NP
p576
s((VI-NP
p577
VO
tVCD
p578
tp579
g233
s((VI-NP
p580
VI-NP
p581
tVNNS
p582
tp583
VI-NP
p584
s((VO
tVDT
p585
tp586
VB-NP
p587
s((VO
VB-NP
p588
tVPRP$
p589
tp590
g324
s((VB-NP
p591
VI-NP
p592
tVNN
p593
tp594
g255
s((tVNNP
p595
tp596
g100
s((VI-NP
p597
g227
tg228
tp598
VB-NP
p599
s((VO
g53
tg68
tp600
g415
s((VO
VO
tg405
tp601
VO
s((VI-NP
p602
VB-NP
p603
tVDT
p604
tp605
VO
s((VB-NP
p606
VI-NP
p607
tVIN
p608
tp609
VO
s((VI-NP
p610
VO
tVVB
p611
tp612
VO
s((tVJJR
p613
tp614
g196
s((VO
g89
tg90
tp615
VO
s((VO
VO
tg384
tp616
VO
s((VB-NP
p617
tVPOS
p618
tp619
VI-NP
p620
s((VB-NP
p621
VO
tg242
tp622
VO
s((VI-NP
p623
VI-NP
p624
tVWP$
p625
tp626
g240
s((VB-NP
p627
VO
tVVBZ
p628
tp629
VO
s((VI-NP
p630
g331
tg332
tp631
VO
s((VO
VB-NP
p632
tVJJR
p633
tp634
g98
s((VO
g165
tg166
tp635
g47
s((VI-NP
p636
VO
tVJJS
p637
tp638
VB-NP
p639
s((VI-NP
p640
g256
tg257
tp641
VO
s((VI-NP
p642
VO
tVDT
p643
tp644
VB-NP
p645
s((VB-NP
p646
VO
tVVBD
p647
tp648
VO
s((VI-NP
p649
VO
tVNNS
p650
tp651
g282
s((VO
g244
tg245
tp652
VO
s((tg160
tp653
g162
s((VI-NP
p654
VI-NP
p655
tVVBG
p656
tp657
VO
s((VB-NP
p658
g216
tg217
tp659
VO
s((VB-NP
p660
g351
tg352
tp661
g354
s((VO
VO
tg154
tp662
VO
s((VB-NP
p663
VO
tg175
tp664
VB-NP
p665
s((VI-NP
p666
VB-NP
p667
tVVBP
p668
tp669
VO
s((VI-NP
p670
VI-NP
p671
tVVBZ
p672
tp673
VO
s((VB-NP
p674
g268
tg269
tp675
VO
s((tVNN
p676
tp677
g211
s((g159
VO
tVNNP
p678
tp679
g336
s((g244
VI-NP
p680
tVVB
p681
tp682
VO
s((VB-NP
p683
VB-NP
p684
tVJJS
p685
tp686
VI-NP
p687
s((VO
tVRB
p688
tp689
VO
s((VO
VB-NP
p690
tVEX
p691
tp692
g127
s((tg221
tp693
VO
s((VB-NP
p694
g407
tg408
tp695
VI-NP
p696
s((VI-NP
p697
VB-NP
p698
tVJJ
p699
tp700
VI-NP
p701
s((VO
g186
tg187
tp702
g189
s((VO
tVVBG
p703
tp704
VO
s((VB-NP
p705
VO
tVVBG
p706
tp707
VO
s((VI-NP
p708
VO
tVIN
p709
tp710
VO
s((g202
VB-NP
p711
tVRB
p712
tp713
VI-NP
p714
s((VB-NP
p715
g318
tg319
tp716
VO
s((VB-NP
p717
tVDT
p718
tp719
VI-NP
p720
s((VB-NP
p721
VI-NP
p722
tVJJR
p723
tp724
VO
s((VI-NP
p725
VI-NP
p726
tVPOS
p727
tp728
VI-NP
p729
s((VO
g197
tg198
tp730
g50
s((VB-NP
p731
g156
tg157
tp732
VB-NP
p733
s((VB-NP
p734
VO
tVNNS
p735
tp736
VB-NP
p737
s((VB-NP
p738
VO
tVVBP
p739
tp740
VO
s((VO
VO
tVNN
p741
tp742
VB-NP
p743
s((VI-NP
p744
g396
tg397
tp745
VO
s((VI-NP
p746
VO
tV''
p747
tp748
VO
s((VI-NP
p749
VI-NP
p750
tVVBN
p751
tp752
VO
s((VB-NP
p753
g141
tg142
tp754
VI-NP
p755
s((VB-NP
p756
g366
tg367
tp757
VO
s((VO
VB-NP
p758
tVWP$
p759
tp760
g340
s((VO
tVJJS
p761
tp762
VB-NP
p763
s((VB-NP
p764
tVNNP
p765
tp766
g58
s((VI-NP
p767
VI-NP
p768
tVVBP
p769
tp770
VO
s((VB-NP
p771
tVVBP
p772
tp773
VO
s((g374
VO
tV:
tp774
VO
s((VO
g290
tg291
tp775
VO
s((VB-NP
p776
VO
tVRBR
p777
tp778
VO
s((g277
tg278
tp779
VI-NP
p780
s((VI-NP
p781
VI-NP
p782
tVJJ
p783
tp784
VI-NP
p785
s((VI-NP
p786
VB-NP
p787
tVNN
p788
tp789
VI-NP
p790
s((VB-NP
p791
VI-NP
p792
tVPRP
p793
tp794
VB-NP
p795
s((tg288
tp796
VO
s((VO
VO
tVVBD
p797
tp798
VO
s((VO
VO
tVNNS
p799
tp800
VB-NP
p801
s((VB-NP
p802
VB-NP
p803
tVNNS
p804
tp805
VI-NP
p806
s((tVJJS
p807
tp808
VO
s((tVJJ
p809
tp810
g182
s((VO
VO
tVRBS
p811
tp812
VO
s((VB-NP
p813
tVVBZ
p814
tp815
VO
s((VO
g402
tg403
tp816
g56
s((VO
tVNN
p817
tp818
VB-NP
p819
s((VB-NP
p820
VO
tVIN
p821
tp822
VO
s((VI-NP
p823
g107
tg108
tp824
g110
s((VB-NP
p825
VO
tVRB
p826
tp827
VO
s((VO
tVVBP
p828
tp829
VO
s((VB-NP
p830
VO
tVVB
p831
tp832
VO
s((VB-NP
p833
VB-NP
p834
tVVBG
p835
tp836
VI-NP
p837
s((VO
tVNNP
p838
tp839
VB-NP
p840
s((VI-NP
p841
VO
tVNN
p842
tp843
g123
s((g307
g92
tg93
tp844
VO
s((VI-NP
p845
VO
tV#
tp846
VB-NP
p847
s((VI-NP
p848
VI-NP
p849
tVVBD
p850
tp851
VO
s((g202
tg203
tp852
VO
s((VI-NP
p853
VO
tV(
tp854
VO
s((VO
g265
tg266
tp855
VI-NP
p856
s((VB-NP
p857
g135
tg136
tp858
VO
s((VB-NP
p859
VO
tVJJS
p860
tp861
VB-NP
p862
s((VB-NP
p863
tVPRP
p864
tp865
VI-NP
p866
s((VB-NP
p867
VO
tg85
tp868
VO
s((VO
VO
tVJJ
p869
tp870
g171
s((VO
g285
tg286
tp871
g35
s((VO
VO
tVDT
p872
tp873
g42
s((tg133
tp874
VO
s((VO
VO
tg82
tp875
g174
s((VI-NP
p876
VB-NP
p877
tVNNP
p878
tp879
VI-NP
p880
s((VO
g114
tg115
tp881
VO
s((VO
VO
tg230
tp882
VO
s((VB-NP
p883
VB-NP
p884
tVRBR
p885
tp886
VO
s((g262
VI-NP
p887
tVRB
p888
tp889
VO
s((tg410
tp890
VO
s((VB-NP
p891
tVRB
p892
tp893
VO
s((VO
tVRBR
p894
tp895
VB-NP
p896
s((tg386
tp897
VO
s((VO
tVVBZ
p898
tp899
VO
s((VO
VO
tVPOS
p900
tp901
g179
s((g481
g374
tg375
tp902
g377
s((VO
VB-NP
p903
tVVBD
p904
tp905
VO
s((VI-NP
p906
VO
tg316
tp907
VO
s((VB-NP
p908
g363
tg364
tp909
VO
s((VI-NP
p910
g117
tg118
tp911
g120
s((VB-NP
p912
tVNNS
p913
tp914
VI-NP
p915
s((VO
g344
tg345
tp916
g347
s((g233
g56
tg36
tp917
g362
s((VO
g299
tg300
tp918
VO
s((VI-NP
p919
VO
tg223
tp920
VO
s((VO
VO
tV:
tp921
VO
s((VO
tV:
tp922
VO
s((VI-NP
p923
VO
tVJJ
p924
tp925
VB-NP
p926
s((tg416
tp927
g418
ssb.