ccopy_reg
_reconstructor
p1
(cnltk.tag.sequential
ClassifierBasedPOSTagger
p2
c__builtin__
object
p3
NtRp4
(dp5
S'_taggers'
p6
(lp7
g4
asS'_cutoff_prob'
p8
NsS'_classifier'
p9
g1
(cnltk.classify.naivebayes
NaiveBayesClassifier
p10
g3
NtRp11
(dp12
S'_labels'
p13
(lp14
VI-PP
p15
aVB-PP
p16
aVI-VP
p17
aVO
aVI-NP
p18
aVB-VP
p19
aVB-NP
p20
asS'_feature_probdist'
p21
(dp22
(VO
Vsuffix1
p23
tp24
g1
(cnltk.probability
ELEProbDist
p25
g3
NtRp26
(dp27
S'_gamma'
p28
F0.5
sS'_N'
p29
I38297
sS'_freqdist'
p30
cnltk.probability
FreqDist
p31
((dp32
Vc
I3746
sVg
I15
sVz
I23
sVn
I3501
sVd
I174
sV`
I1310
sV#
I7
sVb
I4647
sV$
I26
sV'
I1397
sV)
I275
sV(
I264
sVj
I1821
sVm
I4
sV,
I10206
sVo
I41
sV.
I8813
sVp
I183
sVs
I89
sVr
I468
sVt
I223
sVw
I3
sVh
I12
sVx
I17
sV:
I1032
stRp33
sS'_bins'
p34
I25
sS'_divisor'
p35
F38309.5
sbs(g16
Vprevword
p36
tp37
g1
(g25
g3
NtRp38
(dp39
g28
F0.5
sg29
I21281
sg30
g31
((dp40
Vvb
p41
I647
sVcc
p42
I177
sVjjs
p43
I39
sVjjr
p44
I157
sVcd
p45
I880
sV''
p46
I137
sVprp
p47
I136
sVin
p48
I456
sVnns
p49
I3199
sVnnp
p50
I783
sVnnps
p51
I47
sVrp
p52
I5
sVnn
p53
I7670
sV)
I33
sV(
I22
sV,
I927
sV.
I1
sVto
p54
I2
sVrb
p55
I648
sVrbr
p56
I10
sV:
I58
sV``
p57
I54
sVfw
p58
I3
sVsym
p59
I2
sVpos
p60
I3
sVjj
p61
I589
sVwp
p62
I3
sVwrb
p63
I2
sVdt
p64
I161
sVmd
p65
I6
sVvbg
p66
I514
sVvbd
p67
I692
sVrbs
p68
I37
sVvbn
p69
I1716
sVvbp
p70
I189
sVwdt
p71
I9
sVvbz
p72
I279
sNI988
stRp73
sg34
I45
sg35
F21303.5
sbs(g18
Vprevprevword
p74
tp75
g1
(g25
g3
NtRp76
(dp77
g28
F0.5
sg29
I63307
sg30
g31
((dp78
Vvb
p79
I2421
sVcc
p80
I2521
sVjjs
p81
I126
sVpos
p82
I851
sVcd
p83
I1693
sV''
p84
I170
sVvbn
p85
I917
sVprp
p86
I62
sVin
p87
I14823
sVwp$
p88
I14
sVnns
p89
I859
sVnnp
p90
I5454
sV#
I22
sVnnps
p91
I46
sVwrb
p92
I208
sV$
I1225
sVnn
p93
I2615
sV)
I18
sV(
I117
sV,
I3084
sV.
I11
sVto
p94
I1618
sVrb
p95
I1083
sV:
I379
sV``
p96
I505
sVfw
p97
I6
sVsym
p98
I2
sVjjr
p99
I256
sVjj
p100
I3251
sVwp
p101
I35
sVrp
p102
I61
sVdt
p103
I8292
sVmd
p104
I9
sVprp$
p105
I859
sVvbg
p106
I1228
sVvbd
p107
I2344
sVpdt
p108
I52
sVrbs
p109
I75
sVrbr
p110
I96
sVvbp
p111
I575
sVwdt
p112
I44
sVuh
p113
I1
sVvbz
p114
I1421
sNI3856
sVex
p115
I2
stRp116
sg34
I45
sg35
F63329.5
sbs(VO
Vprevprevtag+word
p117
tp118
g1
(g25
g3
NtRp119
(dp120
g28
F0.5
sg29
I38297
sg30
g31
((dp121
VNone+jjs
p122
I6
sVNone+,
p123
I428
sVI-VP+wdt
p124
I1
sVNone+.
p125
I15
sVNone+)
p126
I4
sVNone+(
p127
I30
sVI-NP+wrb
p128
I119
sVNone+jjr
p129
I2
sVI-NP+jjs
p130
I3
sVI-NP+jjr
p131
I52
sVO+wdt
p132
I1
sVB-PP+dt
p133
I6
sVB-VP+in
p134
I445
sVNone+:
p135
I79
sVI-NP+,
p136
I3456
sVB-PP+vbn
p137
I1
sVB-VP+rbr
p138
I31
sVB-VP+rbs
p139
I3
sVI-VP+''
p140
I83
sVO+rbr
p141
I19
sVI-VP+dt
p142
I17
sVI-PP+jj
p143
I1
sVNone+md
p144
I18
sVO+``
p145
I91
sVB-VP+``
p146
I169
sVI-VP+jj
p147
I163
sVI-VP+wrb
p148
I30
sVO+nns
p149
I8
sVB-PP+nnp
p150
I4
sVO+nnp
p151
I26
sVO+$
p152
I8
sVI-PP+,
p153
I13
sVI-VP+)
p154
I3
sVI-PP+.
p155
I7
sVI-VP+.
p156
I392
sVI-NP+''
p157
I704
sVI-VP+,
p158
I270
sVI-NP+pdt
p159
I2
sVI-NP+cd
p160
I16
sVI-NP+cc
p161
I1347
sVO+(
p162
I20
sVB-NP+wdt
p163
I1
sVO+vbz
p164
I9
sVNone+wp
p165
I1
sVB-NP+pdt
p166
I1
sVNone+nn
p167
I5
sVI-VP+ex
p168
I3
sVNone+cc
p169
I534
sVI-VP+rp
p170
I11
sVI-NP+rbs
p171
I9
sVI-NP+rbr
p172
I19
sVB-PP+nn
p173
I5
sVO+cd
p174
I56
sVO+cc
p175
I341
sVB-PP+vb
p176
I1
sVI-VP+rb
p177
I281
sVO+''
p178
I243
sVI-NP+wdt
p179
I1
sVNone+ex
p180
I2
sVB-NP+rp
p181
I11
sVI-VP+jjs
p182
I4
sVI-VP+jjr
p183
I34
sVI-NP+prp$
p184
I4
sVB-VP+vbp
p185
I3
sVB-VP+ex
p186
I4
sVB-VP+cc
p187
I171
sVI-NP+dt
p188
I69
sVI-VP+fw
p189
I2
sVB-VP+vbn
p190
I32
sVB-PP+''
p191
I20
sVB-NP+nn
p192
I40
sVB-NP+rb
p193
I992
sVB-VP+vbd
p194
I3
sVB-VP+vbg
p195
I4
sVB-NP+in
p196
I655
sVI-VP+nn
p197
I20
sVO+wrb
p198
I64
sVNone+``
p199
I654
sVI-NP+$
p200
I7
sVI-NP+)
p201
I88
sVI-NP+(
p202
I125
sVI-NP+.
p203
I3320
sVB-VP+jj
p204
I467
sVB-PP+uh
p205
I1
sVB-PP+wrb
p206
I24
sVB-NP+nnp
p207
I6
sVI-NP+:
p208
I357
sVB-NP+nns
p209
I2
sVB-VP+pdt
p210
I1
sVI-NP+rb
p211
I1017
sVI-NP+vbz
p212
I3
sVI-VP+vbg
p213
I3
sVI-NP+vbp
p214
I1
sVO+vb
p215
I10
sVB-VP+rb
p216
I483
sVI-NP+rp
p217
I11
sVB-PP+ex
p218
I1
sVI-NP+vbn
p219
I29
sVNone+wrb
p220
I71
sVO+in
p221
I562
sVB-VP+rp
p222
I19
sVNone+dt
p223
I14
sVI-NP+ex
p224
I3
sVI-NP+jj
p225
I445
sVNone+in
p226
I299
sVB-PP+#
p227
I1
sVB-PP+$
p228
I1
sVB-PP+(
p229
I13
sVB-PP+)
p230
I13
sVB-PP+,
p231
I1210
sVI-PP+rb
p232
I3
sVI-PP+in
p233
I2
sVB-VP+''
p234
I74
sVNone+uh
p235
I9
sVNone+sym
p236
I4
sVB-PP+:
p237
I78
sVB-NP+``
p238
I135
sVB-PP+to
p239
I3
sVI-NP+prp
p240
I2
sVI-VP+``
p241
I41
sVB-NP+cc
p242
I976
sVNone+''
p243
I4
sVB-NP+cd
p244
I26
sVO+vbn
p245
I31
sVB-PP+prp
p246
I1
sVB-VP+md
p247
I3
sVO+dt
p248
I36
sVB-VP+jjs
p249
I1
sVB-PP+``
p250
I25
sVNone+nns
p251
I1
sVO+uh
p252
I2
sVNone+nnp
p253
I19
sVNone+vbd
p254
I7
sVI-NP+md
p255
I2
sVB-VP+vbz
p256
I1
sVI-NP+pos
p257
I2
sVNone+vb
p258
I1
sVNone+rb
p259
I677
sVI-NP+vbd
p260
I2
sVB-NP+md
p261
I7
sVI-NP+vbg
p262
I3
sVO+pdt
p263
I1
sVB-NP+''
p264
I268
sVB-VP+dt
p265
I29
sVNone+rp
p266
I2
sVB-VP+:
p267
I46
sVB-NP+jjs
p268
I7
sVI-VP+rbs
p269
I1
sVI-VP+rbr
p270
I16
sVB-PP+cc
p271
I240
sVB-PP+cd
p272
I2
sVI-PP+``
p273
I1
sVB-VP+(
p274
I5
sVB-NP+dt
p275
I41
sVB-VP+.
p276
I486
sVB-VP+,
p277
I385
sVB-NP+jj
p278
I385
sVB-VP+wrb
p279
I45
sVO+to
p280
I4
sVI-NP+#
p281
I3
sVB-VP+cd
p282
I2
sVB-VP+$
p283
I2
sVI-VP+in
p284
I286
sVI-PP+vbp
p285
I1
sVB-NP+:
p286
I377
sVB-PP+jj
p287
I37
sVB-PP+rp
p288
I10
sVNone+jj
p289
I49
sVO+jjs
p290
I20
sVO+jjr
p291
I53
sVI-VP+vb
p292
I4
sVI-VP+vbd
p293
I2
sVB-NP+$
p294
I4
sVB-PP+rb
p295
I91
sVB-NP+(
p296
I64
sVI-NP+to
p297
I21
sVB-NP+.
p298
I3120
sVB-NP+,
p299
I3667
sVI-VP+vbn
p300
I10
sVB-PP+rbr
p301
I6
sVB-PP+rbs
p302
I2
sVB-VP+jjr
p303
I54
sVB-NP+vb
p304
I4
sVO+fw
p305
I1
sVO+jj
p306
I274
sVO+vbg
p307
I3
sVB-NP+jjr
p308
I52
sVO+vbd
p309
I7
sVB-NP+to
p310
I10
sVI-PP+cc
p311
I6
sVI-VP+(
p312
I7
sVB-PP+.
p313
I985
sVB-PP+jjr
p314
I5
sVNone+vbz
p315
I8
sVO+vbp
p316
I5
sVB-PP+in
p317
I131
sVNone+vbp
p318
I7
sVO+:
p319
I71
sVB-NP+ex
p320
I2
sVI-NP+in
p321
I794
sVB-PP+vbp
p322
I6
sVO+rbs
p323
I3
sVB-PP+jjs
p324
I7
sVO+#
p325
I3
sVB-VP+wdt
p326
I2
sVNone+cd
p327
I7
sVO+)
p328
I83
sVNone+vbn
p329
I2
sVB-PP+vbd
p330
I1
sVB-NP+wrb
p331
I106
sVO+,
p332
I777
sVO+nn
p333
I46
sVO+.
p334
I488
sVNone+rbs
p335
I1
sVNone+rbr
p336
I9
sVI-PP+''
p337
I1
sVO+rb
p338
I618
sVI-VP+cd
p339
I1
sVB-NP+rbr
p340
I116
sVB-NP+rbs
p341
I7
sVI-VP+nnp
p342
I3
sVI-VP+cc
p343
I131
sVNone+prp
p344
I1
sVI-NP+``
p345
I194
sVO+rp
p346
I10
sVO+ex
p347
I2
sVO+md
p348
I7
sVB-VP+nn
p349
I35
sVB-NP+vbd
p350
I5
sVB-VP+to
p351
I3
sVB-NP+vbg
p352
I2
sVI-VP+:
p353
I24
sVI-NP+nn
p354
I31
sVB-NP+vbn
p355
I40
sVB-NP+)
p356
I80
sVB-VP+nnp
p357
I5
sVB-VP+)
p358
I4
sVB-NP+vbp
p359
I1
sVI-NP+nnp
p360
I17
sVB-VP+vb
p361
I2
sVI-NP+vb
p362
I4
sVB-NP+vbz
p363
I2
sVB-VP+nns
p364
I2
stRp365
sg34
I322
sg35
F38458
sbs(g18
Vprevword+word
p366
tp367
g1
(g25
g3
NtRp368
(dp369
g28
F0.5
sg29
I63307
sg30
g31
((dp370
Vvb+cc
p371
I4
sVdt+,
p372
I1
sVwdt+nns
p373
I5
sVdt+)
p374
I1
sVdt+(
p375
I5
sVprp$+nn
p376
I840
sVvb+cd
p377
I2
sVdt+$
p378
I153
sVcc+prp
p379
I1
sVdt+#
p380
I3
sVvbn+nn
p381
I327
sVvbd+jj
p382
I7
sVvbg+vbg
p383
I1
sVcd+nnps
p384
I9
sVdt+:
p385
I1
sV,+nnps
p386
I1
sV,+vbg
p387
I6
sVjjr+nnps
p388
I1
sVwp$+jj
p389
I5
sVto+jj
p390
I1
sVto+nnp
p391
I1
sVcd+rb
p392
I23
sVcd+nnp
p393
I91
sVrbr+dt
p394
I31
sVprp$+$
p395
I7
sVrb+``
p396
I2
sVprp+nns
p397
I3
sVnnp+pos
p398
I6
sVvbp+nns
p399
I3
sVjjr+nn
p400
I231
sVnn+nnps
p401
I8
sV(+nnp
p402
I4
sVnn+to
p403
I16
sVvbd+cd
p404
I6
sVin+:
p405
I1
sVnnp+vb
p406
I5
sVnns+in
p407
I7
sVjj+``
p408
I19
sVcc+vbz
p409
I2
sVwp+jjr
p410
I1
sVnn+nnp
p411
I177
sVrb+in
p412
I26
sVjj+nns
p413
I2923
sVnn+jj
p414
I107
sVwp$+vbn
p415
I1
sVcc+rbs
p416
I5
sVvbg+vbz
p417
I3
sVjjs+nn
p418
I148
sVjjs+vbp
p419
I1
sVpos+fw
p420
I1
sV,+nnp
p421
I162
sV,+nns
p422
I38
sV``+vbz
p423
I1
sV,+vbn
p424
I3
sVjj+fw
p425
I1
sVjj+in
p426
I39
sV``+vbg
p427
I3
sVdt+uh
p428
I3
sV``+vbn
p429
I3
sVrbr+vbn
p430
I1
sVcc+$
p431
I12
sVpos+cd
p432
I32
sV$+vbg
p433
I1
sVvbd+vbg
p434
I1
sVwp+rb
p435
I1
sVnn+vb
p436
I1
sVcc+``
p437
I3
sV,+vb
p438
I2
sV(+jj
p439
I1
sVnns+dt
p440
I1
sVrb+nnp
p441
I4
sVrbs+jj
p442
I68
sVdt+in
p443
I2
sVrbr+nnp
p444
I1
sVvb+jj
p445
I4
sVnn+vbz
p446
I25
sVnnp+``
p447
I4
sV,+fw
p448
I1
sVrbr+jj
p449
I46
sVvbg+jj
p450
I21
sVnnp+fw
p451
I13
sVjjr+nnp
p452
I12
sV.+nn
p453
I2
sVjjr+nns
p454
I119
sV:+nns
p455
I2
sV:+nnp
p456
I5
sV``+in
p457
I3
sVcc+vb
p458
I7
sVin+nn
p459
I27
sVcd+nns
p460
I1194
sVnn+dt
p461
I2
sV:+cc
p462
I2
sV``+nn
p463
I63
sVnns+nnp
p464
I16
sVnns+nns
p465
I128
sVvbn+''
p466
I1
sVnnp+in
p467
I2
sVnn+rbr
p468
I1
sV``+jjr
p469
I2
sVin+nns
p470
I10
sVdt+nn
p471
I8783
sVcc+dt
p472
I6
sVcc+nnp
p473
I439
sVcc+nns
p474
I219
sVjj+nnps
p475
I44
sVvbn+nnp
p476
I35
sVrb+prp
p477
I1
sVvbz+nns
p478
I1
sVjjr+in
p479
I112
sVnn+cc
p480
I444
sVvb+prp$
p481
I4
sVvbn+nns
p482
I159
sV``+nns
p483
I12
sVprp+jj
p484
I1
sVjj+rbs
p485
I2
sVvbz+cc
p486
I2
sVprp$+nnps
p487
I1
sV,+jjr
p488
I3
sV(+nn
p489
I3
sVnns+jj
p490
I14
sVcd+cd
p491
I1614
sVvbn+nnps
p492
I1
sVpos+vbz
p493
I4
sVjjs+''
p494
I1
sV''+nn
p495
I47
sVvbn+$
p496
I20
sVcc+prp$
p497
I1
sVvbg+cd
p498
I4
sVvbn+,
p499
I4
sV(+nns
p500
I1
sVvbg+cc
p501
I11
sVvbg+''
p502
I1
sVpos+jj
p503
I331
sVpos+nnps
p504
I4
sVnnps+cc
p505
I17
sVnnp+(
p506
I1
sVrb+rb
p507
I11
sVprp$+nnp
p508
I104
sVnn+fw
p509
I4
sVnnp+''
p510
I11
sVnnps+,
p511
I2
sVvbp+vb
p512
I7
sVrb+vbn
p513
I85
sVcd+nn
p514
I1646
sVvbp+cd
p515
I3
sV``+fw
p516
I1
sVwrb+jj
p517
I13
sVwp$+nnp
p518
I4
sVwp$+nns
p519
I10
sVwdt+vbp
p520
I5
sVdt+vbz
p521
I7
sVwp$+jjr
p522
I1
sVrb+vbz
p523
I10
sVrb+nn
p524
I18
sVnn+rb
p525
I13
sVpos+vbd
p526
I3
sVdt+vbn
p527
I263
sVpos+vbg
p528
I19
sV,+rb
p529
I18
sVdt+vbg
p530
I175
sVwp+nn
p531
I8
sVpos+vbn
p532
I17
sVdt+vbd
p533
I11
sVwdt+prp$
p534
I1
sVjj+vbg
p535
I20
sV``+nnp
p536
I29
sVvb+nn
p537
I28
sVrb+wrb
p538
I2
sVjj+nn
p539
I5908
sVwdt+jj
p540
I1
sVin+jj
p541
I28
sVin+pdt
p542
I6
sVvbg+nn
p543
I239
sV``+dt
p544
I4
sVdt+rb
p545
I172
sVjjs+vbd
p546
I1
sVvbd+``
p547
I1
sV''+cc
p548
I4
sVrbs+nn
p549
I6
sVjjs+vbg
p550
I4
sVnnps+nn
p551
I20
sVcc+rb
p552
I28
sVrb+wp
p553
I2
sVpos+``
p554
I14
sVprp$+rb
p555
I13
sVjjr+``
p556
I1
sVnns+vbn
p557
I1
sVprp$+rbs
p558
I9
sVnns+cd
p559
I3
sVvbg+nns
p560
I113
sVjj+wp
p561
I1
sVpdt+dt
p562
I50
sVnns+cc
p563
I260
sVjj+(
p564
I1
sVrb+to
p565
I2
sVjj+,
p566
I62
sVnns+''
p567
I1
sVpos+)
p568
I1
sV)+nn
p569
I2
sVnnp+vbd
p570
I1
sVin+''
p571
I1
sVin+nnp
p572
I6
sVdt+nnps
p573
I38
sVnn+``
p574
I13
sVjjs+,
p575
I2
sV``+rb
p576
I2
sVnn+vbg
p577
I54
sVnn+vbd
p578
I18
sVjj+''
p579
I31
sVnn+jjr
p580
I2
sVjjs+vbz
p581
I1
sVnns+nn
p582
I185
sV#+cd
p583
I29
sVvb+''
p584
I1
sVjj+cd
p585
I167
sVjj+cc
p586
I120
sVnn+vbp
p587
I1
sVrb+nns
p588
I7
sVvbn+vb
p589
I1
sVdt+jjs
p590
I171
sVdt+jjr
p591
I98
sVin+#
p592
I4
sVjj+nnp
p593
I387
sV$+nnp
p594
I1
sVvb+vbz
p595
I2
sVcc+jjs
p596
I1
sVcc+jjr
p597
I23
sVpos+nn
p598
I738
sVcd+cc
p599
I56
sVnn+''
p600
I32
sVwp$+vbg
p601
I1
sVprp$+nns
p602
I379
sVin+dt
p603
I22
sVjjr+vb
p604
I1
sVvbp+jj
p605
I1
sVprp$+vbd
p606
I2
sVcd+jj
p607
I281
sVpos+jjr
p608
I1
sVpos+jjs
p609
I37
sVwp+vbz
p610
I2
sVcc+in
p611
I2
sVnnp+nn
p612
I1238
sVnns+jjr
p613
I2
sVdt+dt
p614
I15
sVnnp+dt
p615
I8
sV''+jj
p616
I3
sVrb+''
p617
I1
sVprp$+``
p618
I6
sVfw+fw
p619
I3
sVin+to
p620
I10
sV$+rb
p621
I1
sVvbd+$
p622
I1
sV''+vbz
p623
I1
sVin+cd
p624
I283
sVcd+vbz
p625
I13
sVrb+jj
p626
I243
sVjjr+cc
p627
I7
sVnnps+nnps
p628
I2
sVnns+vbp
p629
I51
sVin+jjs
p630
I30
sVfw+nn
p631
I1
sV:+rb
p632
I4
sVnns+rbr
p633
I1
sVcd+vbn
p634
I10
sVrbr+rb
p635
I3
sVdt+nns
p636
I1334
sVwrb+rb
p637
I2
sVcd+vbg
p638
I5
sVcd+vbd
p639
I2
sVcc+nnps
p640
I11
sVjj+jj
p641
I931
sVcc+vbn
p642
I14
sVwdt+nn
p643
I7
sVvbz+jj
p644
I1
sV)+nnp
p645
I3
sVcc+vbg
p646
I9
sVdt+nnp
p647
I2016
sVin+$
p648
I60
sVnnp+nns
p649
I502
sVnnp+nnp
p650
I7679
sVvbg+,
p651
I4
sVcd+jjr
p652
I10
sVcd+jjs
p653
I7
sV''+$
p654
I1
sVcc+nn
p655
I400
sVwrb+nn
p656
I4
sVdt+vb
p657
I2
sVvbg+$
p658
I2
sVin+fw
p659
I1
sVwp+nns
p660
I2
sVprp$+jjs
p661
I23
sV``+vb
p662
I3
sV,+nn
p663
I112
sVjjr+vbn
p664
I2
sVjjr+dt
p665
I2
sVpos+nnp
p666
I218
sVpos+nns
p667
I221
sVjjs+dt
p668
I1
sVprp$+vb
p669
I1
sVnns+prp$
p670
I1
sVcd+to
p671
I57
sV$+nn
p672
I15
sVdt+fw
p673
I2
sVrbs+rb
p674
I5
sV)+nns
p675
I1
sVvb+,
p676
I2
sV,+rbr
p677
I3
sV,+rbs
p678
I1
sV.+nnp
p679
I10
sVcd+dt
p680
I2
sVrb+cd
p681
I104
sVrb+cc
p682
I1
sVto+$
p683
I27
sVprp$+fw
p684
I1
sVin+vb
p685
I3
sVprp+cd
p686
I1
sVjjs+nnps
p687
I1
sV$+cd
p688
I1703
sVvbg+``
p689
I1
sVjj+rb
p690
I5
sVprp$+jj
p691
I407
sVnnp+md
p692
I4
sVnns+rb
p693
I3
sVpos+in
p694
I1
sVrbs+nnp
p695
I3
sVvbd+nn
p696
I26
sVcc+rbr
p697
I3
sV,+''
p698
I1
sVrb+jjs
p699
I4
sVrb+jjr
p700
I50
sVrbs+vbn
p701
I4
sVnnp+nnps
p702
I220
sVrb+prp$
p703
I4
sVwp$+nn
p704
I13
sVnnp+jj
p705
I183
sVrbs+vbg
p706
I1
sVnnps+nns
p707
I6
sVnnps+nnp
p708
I17
sVjjs+cd
p709
I27
sVrb+dt
p710
I109
sVvbp+nn
p711
I3
sVjjs+cc
p712
I1
sVpos+rb
p713
I1
sVnn+)
p714
I2
sVjj+to
p715
I4
sVnn+,
p716
I75
sVto+cd
p717
I58
sVnn+$
p718
I8
sVrb+#
p719
I2
sVjjs+jj
p720
I29
sVrb+$
p721
I93
sVvbg+nnp
p722
I16
sVvbn+jj
p723
I56
sVpos+$
p724
I7
sVfw+nnp
p725
I14
sVrbs+``
p726
I1
sVdt+cc
p727
I13
sVjj+dt
p728
I40
sVrb+nnps
p729
I2
sVjjr+jj
p730
I21
sVvbz+to
p731
I1
sVnn+nn
p732
I3368
sVprp$+cd
p733
I32
sVvb+dt
p734
I1
sVjj+$
p735
I21
sVvbn+cd
p736
I13
sVvbn+cc
p737
I8
sVvbd+nns
p738
I22
sVrb+vbp
p739
I1
sVwp+jj
p740
I1
sVdt+``
p741
I89
sVvbz+dt
p742
I4
sVnn+pos
p743
I6
sVrbr+in
p744
I7
sVnnp+vbg
p745
I11
sVnnp+cd
p746
I321
sV''+nnp
p747
I8
sV''+nns
p748
I29
sVdt+cd
p749
I467
sVjjr+,
p750
I4
sVnnp+cc
p751
I436
sVrb+rbr
p752
I5
sVnnp+:
p753
I1
sVnn+cd
p754
I50
sVprp$+jjr
p755
I8
sVto+vb
p756
I3
sVjjr+vbz
p757
I1
sVnns+,
p758
I39
sVcd+in
p759
I11
sVjjs+:
p760
I1
sVnn+in
p761
I4
sVnnp+)
p762
I2
sVjj+vbd
p763
I6
sVnnp+,
p764
I230
sVin+vbg
p765
I3
sVnnp+.
p766
I14
sVjjr+vbg
p767
I4
sVjj+vbn
p768
I23
sVnn+#
p769
I1
sVin+vbn
p770
I2
sVdt+prp
p771
I7
sVrb+vb
p772
I1
sVnns+``
p773
I1
sVvbn+jjr
p774
I1
sVpos+rbs
p775
I3
sVnn+nns
p776
I2440
sV,+$
p777
I4
sV``+cd
p778
I2
sVdt+rbs
p779
I54
sVdt+rbr
p780
I21
sV.+''
p781
I1
sVcc+jj
p782
I185
sVdt+prp$
p783
I8
sVjjs+$
p784
I2
sVnns+vbd
p785
I1
sVnns+vbg
p786
I5
sVjj+jjs
p787
I3
sVjj+jjr
p788
I2
sVcd+$
p789
I1
sVprp$+vbp
p790
I1
sVcd+,
p791
I87
sVin+rb
p792
I2
sVfw+nns
p793
I2
sVprp$+vbg
p794
I6
sV$+jj
p795
I7
sVcc+cd
p796
I47
sVwp+dt
p797
I1
sVprp$+vbn
p798
I23
sVrbs+nns
p799
I26
sV,+jj
p800
I78
sVvb+nns
p801
I32
sVjjr+cd
p802
I2
sVvb+nnp
p803
I5
sVjj+:
p804
I1
sVdt+jj
p805
I3625
sVcd+vb
p806
I2
sVcd+``
p807
I1
sV,+cd
p808
I80
sV,+cc
p809
I23
sV``+jj
p810
I68
sVrb+vbg
p811
I4
sVnn+md
p812
I1
sVrb+vbd
p813
I4
sVnnp+vbz
p814
I4
sV.+jj
p815
I1
sVvbn+vbg
p816
I3
sVjjs+nnp
p817
I3
sVjjs+nns
p818
I53
sVnnps+jj
p819
I2
sVvbn+vbn
p820
I1
stRp821
sg34
I1131
sg35
F63872.5
sbs(g20
g36
tp822
g1
(g25
g3
NtRp823
(dp824
g28
F0.5
sg29
I55081
sg30
g31
((dp825
Vvb
p826
I3290
sVcc
p827
I2485
sVjjs
p828
I22
sVpos
p829
I4
sVcd
p830
I351
sV''
p831
I275
sVvbn
p832
I909
sVprp
p833
I93
sVin
p834
I20245
sVnns
p835
I928
sVnnp
p836
I1173
sVnnps
p837
I25
sVwrb
p838
I401
sVnn
p839
I1985
sV)
I42
sV(
I190
sV,
I4814
sV.
I1
sVto
p840
I1995
sVrb
p841
I543
sV:
I544
sg96
I898
sVfw
p842
I1
sVsym
p843
I4
sVjjr
p844
I19
sVjj
p845
I242
sVwp
p846
I89
sVrp
p847
I72
sVdt
p848
I108
sVmd
p849
I26
sVprp$
p850
I6
sVvbg
p851
I1584
sVvbd
p852
I3198
sVpdt
p853
I5
sVrbs
p854
I1
sVrbr
p855
I8
sVvbp
p856
I860
sVwdt
p857
I99
sVuh
p858
I2
sVvbz
p859
I1811
sNI5731
sVex
p860
I2
stRp861
sg34
I45
sg35
F55103.5
sbs(g15
Vprevtag+word
p862
tp863
g1
(g25
g3
NtRp864
(dp865
g28
F0.5
sg29
I291
sg30
g31
((dp866
VB-PP+in
p867
I235
sVB-PP+jj
p868
I1
sVB-PP+cc
p869
I23
sVI-PP+rb
p870
I3
sVI-PP+in
p871
I15
sVB-PP+dt
p872
I1
sVB-PP+rb
p873
I6
sVB-PP+vbg
p874
I1
sVI-PP+cc
p875
I1
sVB-PP+to
p876
I5
stRp877
sg34
I305
sg35
F443.5
sbs(g20
Vshape
p878
tp879
g1
(g25
g3
NtRp880
(dp881
g28
F0.5
sg29
I55081
sg30
g31
((dp882
Vmixedcase
p883
I51776
sVpunct
p884
I1412
sVother
p885
I1893
stRp886
sg34
I3
sg35
F55082.5
sbs(g18
g878
tp887
g1
(g25
g3
NtRp888
(dp889
g28
F0.5
sg29
I63307
sg30
g31
((dp890
g883
I62076
sg884
I1212
sg885
I19
stRp891
sg34
I3
sg35
F63308.5
sbs(g20
g366
tp892
g1
(g25
g3
NtRp893
(dp894
g28
F0.5
sg29
I55081
sg30
g31
((dp895
VNone+jjs
p896
I41
sVNone+jjr
p897
I10
sVprp+vb
p898
I1
sVprp+nn
p899
I6
sVwrb+nnps
p900
I4
sVvbn+nn
p901
I98
sV''+in
p902
I2
sVvbg+vbg
p903
I1
sVcd+rbr
p904
I1
sV``+wp
p905
I10
sVvbg+vbn
p906
I14
sVin+wrb
p907
I2
sVvbz+wp
p908
I12
sVto+nnp
p909
I216
sVcd+rb
p910
I1
sVto+nns
p911
I128
sVvb+cd
p912
I122
sVnnp+pos
p913
I932
sVjjr+nn
p914
I1
sVNone+vb
p915
I10
sV(+nnp
p916
I67
sV(+nns
p917
I5
sVcc+wp$
p918
I1
sV,+wp$
p919
I19
sVvbd+cd
p920
I482
sVvbz+nn
p921
I167
sVnns+in
p922
I42
sVvbn+wp
p923
I4
sV,+dt
p924
I1415
sVcc+nn
p925
I219
sVwrb+prp
p926
I119
sVvbg+vbz
p927
I1
sVjjs+nn
p928
I2
sV,+nnp
p929
I1155
sV,+nns
p930
I266
sVvbd+jj
p931
I228
sVwdt+rb
p932
I1
sVwdt+nns
p933
I10
sVvbd+jjr
p934
I33
sV``+vbg
p935
I1
sVin+prp$
p936
I832
sV``+vbd
p937
I1
sV``+vbn
p938
I2
sVcc+$
p939
I125
sVto+rb
p940
I20
sVvb+ex
p941
I3
sVvbg+prp
p942
I73
sV,+vb
p943
I3
sVprp+dt
p944
I51
sV(+wp
p945
I2
sVvb+jj
p946
I308
sV:+vbn
p947
I4
sVnn+jjr
p948
I9
sVsym+fw
p949
I2
sV:+vbd
p950
I1
sVNone+cd
p951
I138
sVNone+cc
p952
I4
sVin+wdt
p953
I74
sVvbz+ex
p954
I4
sVvbd+vbg
p955
I3
sVpos+dt
p956
I1
sVvbd+vbn
p957
I8
sVwp+prp
p958
I45
sV:+nns
p959
I41
sV:+nnp
p960
I94
sV``+in
p961
I3
sV``+prp$
p962
I14
sVvbg+jjr
p963
I20
sVvbd+vbz
p964
I1
sVNone+dt
p965
I1887
sV``+nn
p966
I61
sVto+dt
p967
I557
sV(+ex
p968
I1
sV``+jjs
p969
I5
sV``+jjr
p970
I5
sVvbg+pdt
p971
I3
sVdt+nn
p972
I53
sVvbn+rbr
p973
I2
sVwrb+cd
p974
I4
sVcd+wp
p975
I5
sVvbz+nnp
p976
I284
sVvbz+nns
p977
I79
sVvb+wrb
p978
I7
sVvbn+prp
p979
I39
sVvbn+rb
p980
I19
sVwdt+dt
p981
I23
sV,+ex
p982
I30
sVvb+prp$
p983
I288
sVNone+nnp
p984
I1694
sV``+nns
p985
I41
sV``+nnp
p986
I85
sVnns+wdt
p987
I158
sVmd+prp$
p988
I1
sV,+jjr
p989
I20
sVprp+cc
p990
I1
sVjj+cd
p991
I33
sVnns+jj
p992
I37
sVvbz+pdt
p993
I1
sVvbn+$
p994
I18
sVcc+prp$
p995
I88
sVvbn+#
p996
I1
sVrp+prp$
p997
I3
sVvbg+cd
p998
I47
sVmd+nns
p999
I2
sVvbg+''
p1000
I2
sVprp+$
p1001
I3
sV(+wdt
p1002
I2
sVto+rbr
p1003
I1
sVvbn+prp$
p1004
I49
sVex+dt
p1005
I2
sVnn+fw
p1006
I1
sVNone+jj
p1007
I377
sVnnp+''
p1008
I3
sVrb+ex
p1009
I4
sVrb+nn
p1010
I20
sV:+vb
p1011
I3
sVvbp+$
p1012
I6
sVvb+in
p1013
I33
sVvbd+ex
p1014
I10
sVpos+vbg
p1015
I1
sVvbg+wdt
p1016
I5
sV,+rb
p1017
I39
sVwp+nn
p1018
I4
sV``+dt
p1019
I224
sVvbp+vbg
p1020
I8
sVwdt+prp$
p1021
I2
sVvb+nn
p1022
I333
sVjj+nn
p1023
I40
sVwdt+jj
p1024
I4
sVvbn+``
p1025
I6
sVrb+cd
p1026
I46
sVwp+prp$
p1027
I2
sVjjr+prp
p1028
I1
sV''+cd
p1029
I3
sVNone+rbr
p1030
I14
sVnns+rbs
p1031
I1
sVrb+wp
p1032
I9
sVvbp+prp$
p1033
I45
sVNone+prp
p1034
I521
sVvb+wp
p1035
I19
sVvbg+nnp
p1036
I112
sVvbg+nns
p1037
I179
sVjj+wp
p1038
I6
sVnns+cc
p1039
I3
sVto+jjr
p1040
I13
sVprp$+prp
p1041
I1
sVvbn+in
p1042
I7
sVdt+nnps
p1043
I1
sV:+jjr
p1044
I4
sVvbz+prp$
p1045
I47
sV``+rb
p1046
I10
sVvbp+ex
p1047
I5
sVdt+wdt
p1048
I4
sVNone+$
p1049
I6
sV``+pdt
p1050
I1
sVnns+nn
p1051
I32
sVcc+wp
p1052
I11
sVNone+#
p1053
I1
sV``+prp
p1054
I326
sVmd+dt
p1055
I8
sVrp+cd
p1056
I1
sVvbn+vb
p1057
I1
sVnn+wp$
p1058
I6
sV)+in
p1059
I1
sVcc+rbr
p1060
I3
sVvb+vbz
p1061
I3
sVnn+ex
p1062
I7
sV:+dt
p1063
I131
sVvb+vbg
p1064
I14
sVvb+vbd
p1065
I3
sVin+dt
p1066
I7356
sV,+prp
p1067
I474
sVjjr+vb
p1068
I1
sVrp+dt
p1069
I28
sVvbp+jj
p1070
I88
sVvb+``
p1071
I4
sV(+rb
p1072
I2
sVcc+in
p1073
I7
sVnnp+nn
p1074
I33
sVto+wp
p1075
I6
sVvbn+pdt
p1076
I2
sVNone+nn
p1077
I403
sVcd+prp$
p1078
I1
sVto+prp$
p1079
I63
sVvbd+$
p1080
I118
sVin+in
p1081
I91
sVin+cd
p1082
I1126
sVrb+jj
p1083
I40
sVvb+pos
p1084
I1
sVin+jjr
p1085
I118
sVin+jjs
p1086
I1
sVvbd+wp
p1087
I4
sV:+rb
p1088
I9
sVnns+rbr
p1089
I3
sVwrb+jjr
p1090
I1
sVwrb+rb
p1091
I3
sVvb+wdt
p1092
I4
sVjj+jj
p1093
I10
sVvbp+wp
p1094
I7
sVvbn+dt
p1095
I302
sVvbz+wrb
p1096
I4
sV,+wdt
p1097
I361
sVnnp+nns
p1098
I2
sVnnp+nnp
p1099
I45
sVcd+jjr
p1100
I1
sVvb+jjr
p1101
I59
sVvbg+$
p1102
I17
sVwp+nns
p1103
I6
sVwp+nnp
p1104
I4
sV,+nn
p1105
I412
sV``+rbs
p1106
I2
sVjjr+dt
p1107
I9
sVcc+pdt
p1108
I2
sVvbz+rbr
p1109
I1
sVvbz+rbs
p1110
I3
sVrp+jj
p1111
I8
sVjjs+dt
p1112
I14
sVwrb+vbg
p1113
I1
sVnn+wp
p1114
I74
sVvbz+prp
p1115
I104
sVwrb+vbn
p1116
I1
sVvbg+rb
p1117
I16
sVvb+rb
p1118
I58
sVvb+$
p1119
I48
sVrbs+rb
p1120
I1
sVrb+prp$
p1121
I14
sVvb+#
p1122
I1
sVvbp+wdt
p1123
I5
sV,+rbs
p1124
I11
sV.+nnp
p1125
I1
sVto+#
p1126
I4
sVto+$
p1127
I289
sVnnp+jj
p1128
I27
sVin+vb
p1129
I4
sVnnp+prp$
p1130
I3
sV''+wdt
p1131
I11
sVvbp+jjr
p1132
I16
sVmd+prp
p1133
I15
sVvbg+``
p1134
I4
sVwdt+$
p1135
I1
sVjj+wp$
p1136
I1
sVnns+rb
p1137
I7
sVvbd+nn
p1138
I243
sVvbz+,
p1139
I1
sV:+``
p1140
I1
sVrb+dt
p1141
I219
sVvbz+$
p1142
I21
sVNone+in
p1143
I14
sVin+``
p1144
I18
sVprp+vbz
p1145
I1
sVvbp+nn
p1146
I79
sVnnp+jjr
p1147
I1
sV``+cc
p1148
I1
sVrb+$
p1149
I8
sV``+cd
p1150
I8
sVvbg+nnps
p1151
I3
sV(+vb
p1152
I3
sVjj+dt
p1153
I34
sVcc+ex
p1154
I24
sVvbz+wdt
p1155
I3
sVnn+nn
p1156
I123
sVvb+dt
p1157
I1258
sVjj+$
p1158
I7
sVvbn+cd
p1159
I76
sVto+vbd
p1160
I1
sVto+vbg
p1161
I7
sV:+$
p1162
I12
sVwp+jj
p1163
I1
sVto+vbn
p1164
I5
sVvbz+dt
p1165
I766
sVnn+pos
p1166
I657
sVnnp+cd
p1167
I20
sV''+nnp
p1168
I86
sV''+nns
p1169
I1
sVvbg+rbr
p1170
I3
sVprp$+dt
p1171
I1
sVjjr+prp$
p1172
I2
sVvb+vb
p1173
I2
sVcd+in
p1174
I2
sVnn+pdt
p1175
I1
sVnns+''
p1176
I2
sVrp+vbn
p1177
I1
sVvbd+prp$
p1178
I158
sVdt+prp
p1179
I7
sVrb+vb
p1180
I1
sVvbg+vb
p1181
I8
sVwrb+nnp
p1182
I43
sVwrb+nns
p1183
I36
sV''+prp
p1184
I107
sVvbn+jjr
p1185
I20
sVdt+rbr
p1186
I1
sVwrb+in
p1187
I3
sVto+rbs
p1188
I2
sVnnps+dt
p1189
I1
sVvb+nnps
p1190
I5
sVrp+nn
p1191
I6
sV:+nn
p1192
I28
sVin+rb
p1193
I208
sV(+vbz
p1194
I1
sVvbz+rb
p1195
I40
sV,+jj
p1196
I250
sVvb+nns
p1197
I319
sVnnp+wdt
p1198
I25
sVprp+in
p1199
I1
sVvb+nnp
p1200
I163
sVvbp+in
p1201
I8
sV,+cd
p1202
I126
sVvbg+in
p1203
I16
sVjjs+nns
p1204
I1
sVnnps+jj
p1205
I3
sVprp+jjr
p1206
I1
sV``+nnps
p1207
I4
sVvb+cc
p1208
I1
sVuh+prp
p1209
I1
sVprp+nnp
p1210
I4
sV,+vbz
p1211
I9
sVprp+nns
p1212
I3
sVvbg+dt
p1213
I623
sVcc+prp
p1214
I172
sVwdt+nnp
p1215
I14
sV,+vbn
p1216
I9
sVnnp+in
p1217
I5
sV,+vbd
p1218
I2
sV,+nnps
p1219
I8
sV,+vbg
p1220
I26
sVcd+nns
p1221
I2
sVcd+nnp
p1222
I20
sVrbr+dt
p1223
I1
sVvbn+nnp
p1224
I112
sVvbp+nns
p1225
I91
sVvbp+nnp
p1226
I45
sVvbn+nns
p1227
I51
sVnn+nnps
p1228
I1
sVrb+pos
p1229
I2
sVvbp+vbd
p1230
I1
sVjjs+prp
p1231
I5
sVvbp+vbn
p1232
I2
sVrb+in
p1233
I6
sVin+(
p1234
I2
sVnn+jj
p1235
I90
sV(+jj
p1236
I7
sVvbp+vbz
p1237
I1
sVcc+rbs
p1238
I10
sVin+#
p1239
I12
sVin+$
p1240
I574
sV,+prp$
p1241
I36
sVnns+jjr
p1242
I2
sVsym+nnp
p1243
I2
sVvbp+rb
p1244
I26
sV(+cd
p1245
I16
sVjj+in
p1246
I2
sVnns+cd
p1247
I23
sVvbd+wdt
p1248
I3
sVrbr+vbn
p1249
I1
sV:+wdt
p1250
I20
sVvbp+nnps
p1251
I1
sVjj+rb
p1252
I7
sVvb+rbs
p1253
I4
sVvb+rbr
p1254
I2
sV,+in
p1255
I17
sVNone+:
p1256
I4
sVrp+in
p1257
I15
sVrb+nns
p1258
I23
sVto+nnps
p1259
I2
sVin+wp
p1260
I55
sVin+nnps
p1261
I43
sVnns+dt
p1262
I234
sVvbd+dt
p1263
I1013
sVNone+wp$
p1264
I1
sVnn+vbz
p1265
I2
sVnnps+wp
p1266
I6
sVnn+wdt
p1267
I237
sVvbg+jj
p1268
I161
sV:+jj
p1269
I32
sVjj+prp$
p1270
I4
sVwrb+dt
p1271
I126
sVjjr+nnp
p1272
I1
sVvbp+dt
p1273
I304
sVjjr+nns
p1274
I3
sVvb+prp
p1275
I203
sV)+cd
p1276
I2
sVcc+vb
p1277
I4
sVvbg+rbs
p1278
I2
sV)+jj
p1279
I4
sVnn+prp
p1280
I159
sVnn+dt
p1281
I216
sV:+cd
p1282
I107
sVcd+wdt
p1283
I9
sVvbz+vbz
p1284
I1
sVprp+wrb
p1285
I1
sVnns+nnp
p1286
I22
sVnns+nns
p1287
I22
sVdt+wp
p1288
I12
sVnn+rbs
p1289
I3
sVnn+rbr
p1290
I13
sVvbz+vbn
p1291
I6
sVnnps+nn
p1292
I1
sVin+ex
p1293
I31
sVcc+wrb
p1294
I1
sVvbz+vbg
p1295
I5
sVin+nns
p1296
I1381
sVin+nnp
p1297
I3101
sV''+wp
p1298
I3
sVcc+dt
p1299
I584
sVcc+nnp
p1300
I421
sVcc+nns
p1301
I150
sVjj+pdt
p1302
I1
sVprp+prp
p1303
I7
sVrb+prp
p1304
I73
sVnn+cd
p1305
I108
sV(+in
p1306
I6
sVnn+in
p1307
I64
sVvbz+cd
p1308
I83
sVin+rbr
p1309
I8
sVin+rbs
p1310
I40
sVin+nn
p1311
I2444
sV:+prp$
p1312
I10
sVnn+''
p1313
I2
sV''+nn
p1314
I4
sVvbd+vb
p1315
I5
sVpos+jj
p1316
I1
sVvbz+jjr
p1317
I19
sVrb+rb
p1318
I8
sVrb+pdt
p1319
I2
sVvb+vbn
p1320
I19
sVvbp+vb
p1321
I1
sVcd+nn
p1322
I18
sVwrb+jj
p1323
I13
sVwdt+vbd
p1324
I2
sVNone+nnps
p1325
I2
sVrb+wdt
p1326
I3
sV(+prp
p1327
I10
sVnn+rb
p1328
I16
sVvbp+cd
p1329
I23
sVwdt+vbp
p1330
I1
sVto+in
p1331
I16
sV(+$
p1332
I34
sVcc+rb
p1333
I31
sVnnp+wp
p1334
I11
sVin+vbn
p1335
I82
sVin+jj
p1336
I1815
sVjj+prp
p1337
I30
sVin+pdt
p1338
I20
sVvbg+nn
p1339
I174
sVrp+vbg
p1340
I1
sVdt+rb
p1341
I1
sVvbd+``
p1342
I1
sV)+nnp
p1343
I9
sVnnp+prp
p1344
I14
sVcd+pos
p1345
I8
sVwrb+prp$
p1346
I12
sVnnp+rbr
p1347
I3
sVvbd+in
p1348
I26
sV``+wdt
p1349
I3
sV)+prp
p1350
I3
sVpdt+dt
p1351
I5
sVNone+prp$
p1352
I77
sVvbd+pdt
p1353
I2
sV)+nn
p1354
I10
sVrp+nns
p1355
I9
sV:+pdt
p1356
I1
sVjj+:
p1357
I1
sVrbr+jj
p1358
I5
sVnn+vbg
p1359
I2
sVnn+vbd
p1360
I5
sVdt+dt
p1361
I8
sV``+fw
p1362
I1
sV''+prp$
p1363
I2
sVnns+wp$
p1364
I7
sVnns+vbp
p1365
I6
sVvb+''
p1366
I1
sVvbz+jj
p1367
I134
sVNone+ex
p1368
I28
sVvb+pdt
p1369
I5
sVcc+``
p1370
I3
sVrb+nnp
p1371
I40
sVdt+jjr
p1372
I1
sV)+rb
p1373
I1
sVNone+vbg
p1374
I9
sVjj+wdt
p1375
I5
sVjj+nnp
p1376
I43
sVrb+wrb
p1377
I1
sVcc+jjr
p1378
I22
sVpos+nn
p1379
I1
sVnns+nnps
p1380
I1
sVcd+cc
p1381
I1
sVcd+cd
p1382
I2
sVprp$+nnp
p1383
I4
sVwp+vbp
p1384
I1
sVto+nn
p1385
I103
sVcd+jj
p1386
I17
sVwp+vbz
p1387
I2
sVwdt+prp
p1388
I31
sVvbd+rb
p1389
I44
sVprp+wp
p1390
I4
sVnn+prp$
p1391
I5
sVnnp+dt
p1392
I37
sV''+jj
p1393
I3
sVwrb+wdt
p1394
I1
sVvbn+vbd
p1395
I1
sVNone+wp
p1396
I29
sVvbp+prp
p1397
I91
sVnnp+vbz
p1398
I3
sVvbg+wp
p1399
I9
sVwrb+nn
p1400
I30
sVvbp+rbs
p1401
I1
sVwdt+cd
p1402
I3
sVwrb+ex
p1403
I4
sVnnps+pos
p1404
I14
sV:+rbs
p1405
I1
sV)+dt
p1406
I8
sVvbg+prp$
p1407
I91
sVNone+nns
p1408
I389
sV:+prp
p1409
I32
sVvbd+prp
p1410
I359
sVcc+nnps
p1411
I1
sVcc+vbn
p1412
I14
sVprp+ex
p1413
I1
sV(+nnps
p1414
I1
sVcc+vbd
p1415
I5
sV)+nns
p1416
I4
sVvbd+rbr
p1417
I2
sVvbd+rbs
p1418
I1
sVrbr+pos
p1419
I1
sVjj+nns
p1420
I17
sVvbp+rbr
p1421
I3
sVprp+jj
p1422
I6
sVin+fw
p1423
I3
sVjj+wrb
p1424
I1
sVnns+wp
p1425
I109
sV,+``
p1426
I2
sVnns+prp$
p1427
I9
sV,+wp
p1428
I113
sVcc+wdt
p1429
I4
sVto+wdt
p1430
I3
sVvbd+,
p1431
I1
sV,+$
p1432
I11
sVcd+dt
p1433
I258
sVwdt+ex
p1434
I1
sVprp+cd
p1435
I2
sVvbp+pdt
p1436
I3
sVuh+pos
p1437
I1
sV(+nn
p1438
I6
sVrb+jjr
p1439
I7
sVNone+wdt
p1440
I7
sVto+vbz
p1441
I1
sVNone+rb
p1442
I51
sVnn+$
p1443
I7
sVvbn+jj
p1444
I90
sVwp+cd
p1445
I1
sVnn+,
p1446
I8
sVto+cd
p1447
I320
sVdt+cd
p1448
I2
sVfw+nnp
p1449
I1
sVto+jj
p1450
I141
sVvbd+nns
p1451
I149
sVvbd+nnp
p1452
I304
sVto+prp
p1453
I20
sVvbn+wdt
p1454
I2
sVvbn+vbz
p1455
I3
sVnns+pos
p1456
I134
sVrb+rbs
p1457
I1
sVrb+rbr
p1458
I1
sV:+ex
p1459
I3
sVnns+$
p1460
I2
sVnn+cc
p1461
I7
sVto+vb
p1462
I77
sVin+vbz
p1463
I10
sVnns+,
p1464
I8
sV:+in
p1465
I5
sVnnp+,
p1466
I4
sVin+vbg
p1467
I93
sVjjr+vbg
p1468
I1
sVnnp+$
p1469
I2
sVnns+:
p1470
I3
sVnns+vbz
p1471
I1
sVnn+nns
p1472
I48
sVcd+prp
p1473
I3
sVnn+nnp
p1474
I114
sVNone+vbz
p1475
I1
sVcc+jj
p1476
I343
sVnnp+rb
p1477
I2
sVNone+vbn
p1478
I12
sVdt+nns
p1479
I6
sVNone+``
p1480
I1
sVdt+nnp
p1481
I8
sVcd+,
p1482
I2
sV``+ex
p1483
I33
sVcc+cd
p1484
I229
sVwp+dt
p1485
I23
sVwdt+nn
p1486
I6
sVvbz+in
p1487
I26
sV:+wp
p1488
I5
sVdt+jj
p1489
I4
sVrb+vbp
p1490
I2
sV''+dt
p1491
I53
sVnnp+vbd
p1492
I1
sV(+dt
p1493
I27
sVrb+vbz
p1494
I8
sV``+jj
p1495
I57
sVrb+vbg
p1496
I1
sVnns+vbd
p1497
I2
sVin+prp
p1498
I701
sVvbn+vbg
p1499
I3
sVrb+vbn
p1500
I4
sVnns+prp
p1501
I58
sVcc+vbg
p1502
I11
sVvbn+vbn
p1503
I3
stRp1504
sg34
I1131
sg35
F55646.5
sbs(g19
Vsuffix2
p1505
tp1506
g1
(g25
g3
NtRp1507
(dp1508
g28
F0.5
sg29
I21467
sg30
g31
((dp1509
Vbd
p1510
I6527
sVvb
p1511
I434
sVbg
p1512
I1570
sVym
p1513
I2
sVbr
p1514
I2
sVcc
p1515
I1
sVbn
p1516
I1094
sVbs
p1517
I4
sV``
p1518
I7
sVjr
p1519
I2
sVcd
p1520
I2
sVbp
p1521
I2749
sVjj
p1522
I47
sVin
p1523
I3
sVdt
p1524
I4
sVbz
p1525
I4469
sVmd
p1526
I2121
sVrp
p1527
I3
sVnn
p1528
I257
sV,
I4
sVto
p1529
I1822
sVrb
p1530
I178
sVnp
p1531
I18
sVns
p1532
I142
sVos
p1533
I5
stRp1534
sg34
I39
sg35
F21486.5
sbs(VO
Vprevtag
p1535
tp1536
g1
(g25
g3
NtRp1537
(dp1538
g28
F0.5
sg29
I38297
sg30
g31
((dp1539
VI-PP
p1540
I15
sVB-PP
p1541
I334
sVI-VP
p1542
I1938
sVO
I8705
sVI-NP
p1543
I16179
sVB-VP
p1544
I3781
sVB-NP
p1545
I5314
sNI2031
stRp1546
sg34
I8
sg35
F38301
sbs(g18
Vword.lower
p1547
tp1548
g1
(g25
g3
NtRp1549
(dp1550
g28
F0.5
sg29
I63307
sg30
g31
((dp1551
Vvb
p1552
I39
sVcc
p1553
I1409
sVjjs
p1554
I276
sVpos
p1555
I12
sVcd
p1556
I5050
sV''
p1557
I83
sVvbn
p1558
I453
sVprp
p1559
I9
sVin
p1560
I216
sVnns
p1561
I9996
sVnnp
p1562
I11470
sV#
I10
sVnnps
p1563
I343
sVwrb
p1564
I2
sV$
I419
sVnn
p1565
I24456
sV)
I6
sV(
I7
sV,
I512
sV.
I14
sVto
p1566
I90
sVrb
p1567
I307
sV:
I5
sV``
p1568
I156
sVfw
p1569
I28
sVjjr
p1570
I204
sVjj
p1571
I6771
sVwp
p1572
I3
sVdt
p1573
I299
sVmd
p1574
I5
sVprp$
p1575
I19
sVvbg
p1576
I336
sVvbd
p1577
I49
sVpdt
p1578
I6
sVrbs
p1579
I74
sVrbr
p1580
I34
sVvbp
p1581
I60
sVuh
p1582
I3
sVvbz
p1583
I76
stRp1584
sg34
I44
sg35
F63329
sbs(g18
g117
tp1585
g1
(g25
g3
NtRp1586
(dp1587
g28
F0.5
sg29
I63307
sg30
g31
((dp1588
VNone+jjs
p1589
I20
sVNone+,
p1590
I14
sVNone+.
p1591
I1
sVNone+jjr
p1592
I13
sVNone+$
p1593
I13
sVI-NP+jjs
p1594
I27
sVI-NP+jjr
p1595
I26
sVB-PP+dt
p1596
I56
sVB-VP+in
p1597
I35
sVO+fw
p1598
I7
sVI-NP+,
p1599
I179
sVO+to
p1600
I4
sVB-NP+vbg
p1601
I77
sVNone+vbg
p1602
I18
sVB-VP+rbr
p1603
I7
sVB-VP+rbs
p1604
I9
sVB-PP+jjs
p1605
I91
sVI-VP+dt
p1606
I26
sVI-PP+jj
p1607
I28
sVB-NP+to
p1608
I27
sVO+``
p1609
I14
sVB-VP+``
p1610
I28
sVB-VP+$
p1611
I66
sVO+nns
p1612
I1367
sVB-PP+nns
p1613
I2238
sVB-PP+nnp
p1614
I2428
sVO+nnp
p1615
I1648
sVI-PP+,
p1616
I2
sVI-PP+nnps
p1617
I2
sVI-NP+''
p1618
I59
sVB-NP+nn
p1619
I7315
sVI-VP+#
p1620
I2
sVI-PP+$
p1621
I3
sVO+nnps
p1622
I41
sVI-NP+cd
p1623
I736
sVI-NP+cc
p1624
I476
sVO+(
p1625
I5
sVB-NP+wp
p1626
I1
sVNone+cd
p1627
I84
sVB-NP+pdt
p1628
I3
sVNone+nn
p1629
I1137
sVB-NP+fw
p1630
I11
sVNone+cc
p1631
I66
sVB-NP+nnps
p1632
I112
sVI-NP+rbs
p1633
I10
sVI-NP+rbr
p1634
I3
sVO+cd
p1635
I472
sVO+cc
p1636
I74
sVB-PP+vb
p1637
I6
sVI-VP+rb
p1638
I28
sVI-PP+cd
p1639
I2
sVI-PP+cc
p1640
I4
sVB-PP+rb
p1641
I72
sVI-VP+jjs
p1642
I19
sVI-VP+jjr
p1643
I28
sVI-NP+prp$
p1644
I4
sVB-VP+prp$
p1645
I2
sVO+jjr
p1646
I22
sVB-VP+vbp
p1647
I3
sVI-NP+dt
p1648
I37
sVI-VP+fw
p1649
I1
sVB-VP+vbn
p1650
I48
sVB-PP+vbg
p1651
I88
sVB-NP+rb
p1652
I50
sVB-VP+vbd
p1653
I2
sVB-VP+vbg
p1654
I36
sVO+nn
p1655
I2780
sVI-VP+nn
p1656
I1323
sVO+jjs
p1657
I37
sVB-PP+md
p1658
I1
sVNone+``
p1659
I6
sVI-NP+$
p1660
I62
sVI-NP+in
p1661
I7
sVI-NP+)
p1662
I3
sVI-NP+.
p1663
I4
sVB-PP+pdt
p1664
I1
sVB-VP+jj
p1665
I809
sVB-NP+pos
p1666
I8
sVB-PP+vbn
p1667
I150
sVB-PP+uh
p1668
I2
sVB-NP+nnp
p1669
I2937
sVI-NP+:
p1670
I3
sVB-NP+nns
p1671
I2511
sVB-VP+pdt
p1672
I1
sVI-NP+rb
p1673
I34
sVNone+pos
p1674
I1
sVI-NP+vbz
p1675
I17
sVB-NP+$
p1676
I86
sVI-NP+vbp
p1677
I18
sVO+vb
p1678
I2
sVB-VP+rb
p1679
I47
sVI-VP+nns
p1680
I594
sVI-NP+vbn
p1681
I42
sVO+in
p1682
I34
sVB-PP+pos
p1683
I1
sVI-NP+vbd
p1684
I14
sVI-NP+vbg
p1685
I37
sVI-NP+jj
p1686
I790
sVI-VP+to
p1687
I5
sVB-PP+$
p1688
I120
sVI-VP+pdt
p1689
I1
sVB-PP+(
p1690
I1
sVB-PP+)
p1691
I1
sVB-PP+,
p1692
I85
sVB-PP+.
p1693
I4
sVI-PP+vbn
p1694
I3
sVB-VP+cd
p1695
I437
sVB-PP+:
p1696
I1
sVB-NP+``
p1697
I33
sVNone+nnps
p1698
I45
sVB-PP+to
p1699
I18
sVI-NP+prp
p1700
I1
sVI-VP+``
p1701
I21
sVB-NP+cc
p1702
I467
sVO+vbg
p1703
I54
sVB-NP+cd
p1704
I1622
sVO+vbn
p1705
I57
sVB-PP+prp
p1706
I1
sVI-PP+jjr
p1707
I1
sVB-PP+prp$
p1708
I5
sVO+dt
p1709
I54
sVB-VP+jjs
p1710
I49
sVB-PP+``
p1711
I37
sVNone+nns
p1712
I610
sVI-NP+fw
p1713
I7
sVNone+nnp
p1714
I1318
sVI-PP+nnp
p1715
I29
sVI-NP+md
p1716
I2
sVB-VP+vbz
p1717
I8
sVI-PP+nn
p1718
I69
sVI-NP+pos
p1719
I2
sVNone+vb
p1720
I1
sVNone+rb
p1721
I38
sVNone+in
p1722
I9
sVI-NP+``
p1723
I16
sVB-VP+uh
p1724
I1
sVNone+dt
p1725
I29
sVB-NP+''
p1726
I24
sVB-VP+dt
p1727
I55
sVI-VP+rbs
p1728
I7
sVI-VP+rbr
p1729
I2
sVB-PP+cc
p1730
I239
sVB-PP+cd
p1731
I1554
sVI-NP+nnps
p1732
I55
sVI-PP+``
p1733
I1
sVB-NP+prp$
p1734
I1
sVB-VP+,
p1735
I5
sVB-NP+jj
p1736
I1245
sVB-VP+#
p1737
I1
sVI-NP+#
p1738
I2
sVI-VP+wrb
p1739
I2
sVI-VP+vbp
p1740
I1
sVI-VP+in
p1741
I18
sVB-NP+:
p1742
I1
sVB-PP+jj
p1743
I2053
sVI-VP+vbz
p1744
I7
sVB-PP+nnps
p1745
I72
sVI-PP+vbz
p1746
I1
sVNone+jj
p1747
I397
sVB-VP+to
p1748
I6
sVB-NP+#
p1749
I1
sVI-VP+vbg
p1750
I25
sVB-VP+cc
p1751
I39
sVB-NP+(
p1752
I1
sVI-NP+to
p1753
I30
sVB-NP+.
p1754
I5
sVB-NP+,
p1755
I196
sVI-VP+vbn
p1756
I51
sVB-PP+rbr
p1757
I9
sVB-PP+rbs
p1758
I25
sVB-VP+jjr
p1759
I33
sVB-NP+vb
p1760
I7
sVO+jj
p1761
I884
sVB-NP+md
p1762
I2
sVO+prp
p1763
I6
sVB-NP+jjr
p1764
I37
sVB-NP+jjs
p1765
I33
sVB-PP+fw
p1766
I2
sVB-PP+nn
p1767
I4964
sVB-VP+nnps
p1768
I13
sVB-PP+jjr
p1769
I44
sVO+vbz
p1770
I9
sVB-VP+wp
p1771
I2
sVO+vbp
p1772
I1
sVB-NP+prp
p1773
I1
sVB-PP+in
p1774
I52
sVNone+vbp
p1775
I1
sVI-VP+,
p1776
I6
sVNone+vbz
p1777
I1
sVB-PP+vbp
p1778
I3
sVO+rbs
p1779
I14
sVO+rbr
p1780
I5
sVO+#
p1781
I2
sVNone+vbd
p1782
I4
sVO+$
p1783
I37
sVO+prp$
p1784
I6
sVI-VP+jj
p1785
I565
sVNone+vbn
p1786
I23
sVB-PP+vbd
p1787
I13
sVO+,
p1788
I25
sVI-VP+nnps
p1789
I3
sVNone+rbs
p1790
I5
sVNone+rbr
p1791
I2
sVI-VP+prp$
p1792
I1
sVO+rb
p1793
I38
sVI-VP+cd
p1794
I143
sVB-NP+rbr
p1795
I6
sVB-NP+rbs
p1796
I4
sVI-VP+nnp
p1797
I180
sVI-VP+cc
p1798
I44
sVB-PP+#
p1799
I2
sVI-PP+nns
p1800
I32
sVB-PP+vbz
p1801
I17
sVI-VP+$
p1802
I32
sVB-VP+nn
p1803
I2081
sVB-NP+vbd
p1804
I16
sVI-PP+vbg
p1805
I1
sVB-NP+dt
p1806
I42
sVI-NP+nn
p1807
I4787
sVI-NP+vb
p1808
I23
sVB-NP+vbn
p1809
I79
sVB-NP+)
p1810
I2
sVB-VP+nnp
p1811
I731
sVB-VP+nns
p1812
I803
sVB-NP+vbp
p1813
I33
sVI-NP+nnp
p1814
I2199
sVI-NP+nns
p1815
I1841
sVB-NP+in
p1816
I61
sVB-NP+vbz
p1817
I16
stRp1818
sg34
I322
sg35
F63468
sbs(g16
Vsuffix3
p1819
tp1820
g1
(g25
g3
NtRp1821
(dp1822
g28
F0.5
sg29
I21281
sg30
g31
((dp1823
Vvb
p1824
I6
sVjjr
p1825
I2
sVcc
p1826
I70
sVjjs
p1827
I1
sV``
p1828
I2
sVvbn
p1829
I78
sV''
p1830
I1
sVjj
p1831
I92
sVin
p1832
I18683
sVrp
p1833
I9
sVdt
p1834
I5
sV,
I15
sVvbg
p1835
I207
sVnn
p1836
I15
sVvbd
p1837
I4
sVrbr
p1838
I3
sVto
p1839
I2013
sVvbp
p1840
I1
sVrb
p1841
I72
sV:
I2
stRp1842
sg34
I44
sg35
F21303
sbs(g20
Vword
p1843
tp1844
g1
(g25
g3
NtRp1845
(dp1846
g28
F0.5
sg29
I55081
sg30
g31
((dp1847
VPRP$
p1848
I1858
sVVBG
p1849
I188
sVVBD
p1850
I25
sVVBN
p1851
I187
sVPOS
p1852
I1750
sV''
p1853
I10
sVVBP
p1854
I10
sVWDT
p1855
I949
sVJJ
p1856
I4304
sVWP
p1857
I525
sVVBZ
p1858
I49
sVDT
p1859
I17807
sV#
I19
sV$
I1309
sVNN
p1860
I5160
sV(
I2
sVFW
p1861
I7
sV,
I24
sVPRP
p1862
I3804
sVRB
p1863
I621
sV:
I8
sVNNS
p1864
I3464
sVNNP
p1865
I8314
sV``
p1866
I40
sVWRB
p1867
I17
sVCC
p1868
I18
sVPDT
p1869
I44
sVRBS
p1870
I82
sVRBR
p1871
I61
sVCD
p1872
I3153
sVEX
p1873
I189
sVIN
p1874
I418
sVWP$
p1875
I35
sVNNPS
p1876
I77
sVJJS
p1877
I47
sVJJR
p1878
I382
sVVB
p1879
I124
stRp1880
sg34
I44
sg35
F55103
sbs(g15
g23
tp1881
g1
(g25
g3
NtRp1882
(dp1883
g28
F0.5
sg29
I291
sg30
g31
((dp1884
Vc
I24
sVb
I9
sVt
I1
sVg
I1
sVj
I1
sVo
I5
sVn
I250
stRp1885
sg34
I25
sg35
F303.5
sbs(VO
g1843
tp1886
g1
(g25
g3
NtRp1887
(dp1888
g28
F0.5
sg29
I38297
sg30
g31
((dp1889
VPRP$
p1890
I4
sVVBG
p1891
I15
sVVBD
p1892
I27
sVVBN
p1893
I145
sV,
I10206
sV''
p1894
I1397
sVVBP
p1895
I24
sVWDT
p1896
I6
sVJJ
p1897
I1821
sVWP
p1898
I1
sVVBZ
p1899
I23
sVDT
p1900
I212
sV#
I7
sVRP
p1901
I74
sV$
I22
sVNN
p1902
I182
sV)
I275
sV(
I264
sVFW
p1903
I3
sVPOS
p1904
I2
sV.
I8813
sVTO
p1905
I41
sVPRP
p1906
I4
sVRB
p1907
I4162
sV:
I1032
sVNNS
p1908
I13
sVNNP
p1909
I80
sg96
I1310
sVWRB
p1910
I459
sVCC
p1911
I3746
sVPDT
p1912
I5
sVRBS
p1913
I26
sVRBR
p1914
I216
sVCD
p1915
I110
sVEX
p1916
I17
sVIN
p1917
I3174
sVMD
p1918
I37
sVJJS
p1919
I48
sVJJR
p1920
I252
sVSYM
p1921
I4
sVVB
p1922
I26
sVUH
p1923
I12
stRp1924
sg34
I44
sg35
F38319
sbs(g20
Vprevprevtag
p1925
tp1926
g1
(g25
g3
NtRp1927
(dp1928
g28
F0.5
sg29
I55081
sg30
g31
((dp1929
VI-PP
p1930
I46
sVB-PP
p1931
I1830
sVI-VP
p1932
I3662
sVO
I8310
sg1543
I17904
sVB-VP
p1933
I6123
sg20
I9132
sNI8074
stRp1934
sg34
I8
sg35
F55085
sbs(g19
g23
tp1935
g1
(g25
g3
NtRp1936
(dp1937
g28
F0.5
sg29
I21467
sg30
g31
((dp1938
V`
I7
sVc
I1
sVb
I612
sVd
I8650
sVg
I1570
sVj
I47
sVm
I2
sV,
I4
sVo
I1822
sVn
I1354
sVp
I2770
sVs
I151
sVr
I4
sVt
I4
sVz
I4469
stRp1939
sg34
I25
sg35
F21479.5
sbs(g17
g1925
tp1940
g1
(g25
g3
NtRp1941
(dp1942
g28
F0.5
sg29
I12003
sg30
g31
((dp1943
VI-PP
p1944
I3
sVB-PP
p1945
I47
sg17
I1112
sVO
I1450
sg18
I3469
sg19
I3047
sVB-NP
p1946
I2841
sNI34
stRp1947
sg34
I8
sg35
F12007
sbs(g20
g1535
tp1948
g1
(g25
g3
NtRp1949
(dp1950
g28
F0.5
sg29
I55081
sg30
g31
((dp1951
g15
I230
sg16
I19714
sVI-VP
p1952
I4264
sVO
I13030
sVI-NP
p1953
I3154
sVB-VP
p1954
I7390
sVB-NP
p1955
I1568
sNI5731
stRp1956
sg34
I8
sg35
F55085
sbs(g18
g23
tp1957
g1
(g25
g3
NtRp1958
(dp1959
g28
F0.5
sg29
I63307
sg30
g31
((dp1960
Vc
I1409
sVg
I336
sVz
I76
sVn
I25125
sVd
I5104
sV`
I156
sV#
I10
sVb
I348
sV$
I438
sV'
I83
sV)
I6
sV(
I7
sVj
I6771
sV,
I512
sVo
I90
sV.
I14
sVp
I11542
sVs
I10701
sVr
I238
sVt
I305
sVw
I28
sVh
I3
sV:
I5
stRp1961
sg34
I25
sg35
F63319.5
sbs(VO
g74
tp1962
g1
(g25
g3
NtRp1963
(dp1964
g28
F0.5
sg29
I38297
sg30
g31
((dp1965
Vvb
p1966
I894
sVcc
p1967
I792
sVjjs
p1968
I68
sVpos
p1969
I418
sVcd
p1970
I2263
sV''
p1971
I83
sVvbn
p1972
I600
sVprp
p1973
I926
sVin
p1974
I2960
sVwp$
p1975
I1
sVnns
p1976
I1835
sVnnp
p1977
I4359
sV#
I14
sVnnps
p1978
I60
sVwrb
p1979
I15
sV$
I194
sVnn
p1980
I5305
sV)
I36
sV(
I95
sV,
I1314
sV.
I25
sVto
p1981
I791
sVrb
p1982
I1233
sV:
I109
sV``
p1983
I240
sVfw
p1984
I15
sVsym
p1985
I2
sVjjr
p1986
I158
sVjj
p1987
I3728
sVwp
p1988
I61
sVrp
p1989
I2
sVdt
p1990
I3182
sVmd
p1991
I330
sVprp$
p1992
I430
sVvbg
p1993
I477
sVvbd
p1994
I803
sVpdt
p1995
I2
sVrbs
p1996
I29
sVrbr
p1997
I62
sVvbp
p1998
I509
sVwdt
p1999
I106
sVuh
p2000
I6
sVvbz
p2001
I752
sNI2970
sVex
p2002
I43
stRp2003
sg34
I45
sg35
F38319.5
sbs(g17
g1819
tp2004
g1
(g25
g3
NtRp2005
(dp2006
g28
F0.5
sg29
I12003
sg30
g31
((dp2007
Vvb
p2008
I5388
sVmd
p2009
I4
sVcc
p2010
I104
sVjjs
p2011
I2
sVjjr
p2012
I11
sV,
I9
sV''
p2013
I2
sVvbn
p2014
I2806
sVjj
p2015
I49
sVin
p2016
I20
sVdt
p2017
I7
sVnns
p2018
I4
sVnnp
p2019
I2
sV``
p2020
I16
sVvbg
p2021
I955
sVnn
p2022
I77
sVvbd
p2023
I113
sV(
I1
sVrbs
p2024
I5
sVrbr
p2025
I5
sVto
p2026
I1110
sVvbp
p2027
I24
sVrb
p2028
I1258
sVvbz
p2029
I31
stRp2030
sg34
I44
sg35
F12025
sbs(g15
g1843
tp2031
g1
(g25
g3
NtRp2032
(dp2033
g28
F0.5
sg29
I291
sg30
g31
((dp2034
VTO
p2035
I5
sVVBG
p2036
I1
sVJJ
p2037
I1
sVRB
p2038
I9
sVIN
p2039
I250
sVCC
p2040
I24
sVDT
p2041
I1
stRp2042
sg34
I44
sg35
F313
sbs(VO
g1505
tp2043
g1
(g25
g3
NtRp2044
(dp2045
g28
F0.5
sg29
I38297
sg30
g31
((dp2046
Vvb
p2047
I26
sVbr
p2048
I216
sVcc
p2049
I3746
sVbs
p2050
I26
sVcd
p2051
I110
sg1894
I1397
sVex
p2052
I17
sVin
p2053
I3174
sV#
I7
sVrp
p2054
I78
sV$
I22
sVnn
p2055
I182
sV)
I275
sV(
I264
sV,
I10206
sV.
I8813
sVto
p2056
I41
sVrb
p2057
I4621
sVnp
p2058
I80
sV:
I1032
sVbd
p2059
I27
sg96
I1310
sVbg
p2060
I15
sVym
p2061
I4
sVfw
p2062
I3
sVbn
p2063
I145
sVjr
p2064
I252
sVjs
p2065
I48
sVbp
p2066
I24
sVjj
p2067
I1821
sVwp
p2068
I1
sVdt
p2069
I223
sVbz
p2070
I23
sVmd
p2071
I37
sVns
p2072
I13
sVuh
p2073
I12
sVp$
p2074
I4
sVos
p2075
I2
stRp2076
sg34
I39
sg35
F38316.5
sbs(VO
g1925
tp2077
g1
(g25
g3
NtRp2078
(dp2079
g28
F0.5
sg29
I38297
sg30
g31
((dp2080
VI-PP
p2081
I35
sVB-PP
p2082
I2931
sVI-VP
p2083
I1843
sVO
I4003
sVI-NP
p2084
I12282
sVB-VP
p2085
I3021
sg1545
I11212
sNI2970
stRp2086
sg34
I8
sg35
F38301
sbs(g18
g1505
tp2087
g1
(g25
g3
NtRp2088
(dp2089
g28
F0.5
sg29
I63307
sg30
g31
((dp2090
Vvb
p2091
I39
sVjj
p2092
I6771
sVcc
p2093
I1409
sVbs
p2094
I74
sVcd
p2095
I5050
sg1557
I83
sVin
p2096
I216
sVps
p2097
I343
sV#
I10
sVrp
p2098
I9
sV$
I419
sVnn
p2099
I24456
sV)
I6
sV(
I7
sV,
I512
sV.
I14
sVto
p2100
I90
sVrb
p2101
I309
sVnp
p2102
I11470
sVns
p2103
I9996
sVbd
p2104
I49
sg1568
I156
sVbg
p2105
I336
sVfw
p2106
I28
sVbn
p2107
I453
sVjr
p2108
I204
sVjs
p2109
I276
sVbp
p2110
I60
sVbr
p2111
I34
sVwp
p2112
I3
sVdt
p2113
I305
sVbz
p2114
I76
sVmd
p2115
I5
sV:
I5
sVuh
p2116
I3
sVp$
p2117
I19
sVos
p2118
I12
stRp2119
sg34
I39
sg35
F63326.5
sbs(g15
g1547
tp2120
g1
(g25
g3
NtRp2121
(dp2122
g28
F0.5
sg29
I291
sg30
g31
((dp2123
Vto
p2124
I5
sVvbg
p2125
I1
sVjj
p2126
I1
sVrb
p2127
I9
sVin
p2128
I250
sVcc
p2129
I24
sVdt
p2130
I1
stRp2131
sg34
I44
sg35
F313
sbs(g19
g1547
tp2132
g1
(g25
g3
NtRp2133
(dp2134
g28
F0.5
sg29
I21467
sg30
g31
((dp2135
Vvb
p2136
I434
sVcc
p2137
I1
sg1518
I7
sVjjr
p2138
I2
sVsym
p2139
I2
sV,
I4
sVvbn
p2140
I1094
sVprp
p2141
I3
sVjj
p2142
I47
sVin
p2143
I3
sVdt
p2144
I4
sVcd
p2145
I2
sVnns
p2146
I142
sVnnp
p2147
I18
sVmd
p2148
I2121
sVvbg
p2149
I1570
sVnn
p2150
I257
sVvbd
p2151
I6527
sVrbs
p2152
I4
sVrbr
p2153
I2
sVto
p2154
I1822
sVvbp
p2155
I2749
sVpos
p2156
I5
sVrb
p2157
I178
sVvbz
p2158
I4469
stRp2159
sg34
I44
sg35
F21489
sbs(g15
g74
tp2160
g1
(g25
g3
NtRp2161
(dp2162
g28
F0.5
sg29
I291
sg30
g31
((dp2163
Vvb
p2164
I2
sVfw
p2165
I1
sVcc
p2166
I5
sg1828
I1
sVjjr
p2167
I1
sVcd
p2168
I2
sV''
p2169
I6
sVvbn
p2170
I10
sVprp
p2171
I2
sVjj
p2172
I3
sVin
p2173
I10
sVdt
p2174
I1
sVnns
p2175
I66
sVnnp
p2176
I4
sVvbg
p2177
I2
sVnn
p2178
I51
sVvbd
p2179
I5
sV(
I2
sV,
I67
sVto
p2180
I1
sVvbp
p2181
I1
sVrb
p2182
I21
sVvbz
p2183
I5
sNI19
sV:
I3
stRp2184
sg34
I45
sg35
F313.5
sbs(g19
g117
tp2185
g1
(g25
g3
NtRp2186
(dp2187
g28
F0.5
sg29
I21467
sg30
g31
((dp2188
VO+vbz
p2189
I1290
sVO+vbg
p2190
I209
sVB-NP+to
p2191
I587
sVI-NP+jjr
p2192
I1
sVB-VP+md
p2193
I132
sVO+dt
p2194
I1
sVNone+nns
p2195
I6
sVNone+nnp
p2196
I7
sVNone+vbg
p2197
I125
sVO+in
p2198
I2
sVO+jj
p2199
I8
sVI-PP+nn
p2200
I1
sVI-VP+dt
p2201
I1
sVNone+vb
p2202
I50
sVNone+rb
p2203
I7
sVO+md
p2204
I493
sVNone+md
p2205
I107
sVO+``
p2206
I2
sVO+nns
p2207
I12
sVB-PP+nns
p2208
I5
sVB-PP+nnp
p2209
I1
sVO+nnp
p2210
I1
sVB-NP+vbd
p2211
I2138
sVB-NP+nn
p2212
I80
sVB-NP+vbz
p2213
I1379
sVB-VP+vb
p2214
I26
sVI-NP+cd
p2215
I2
sVB-NP+vbg
p2216
I328
sVI-VP+vbn
p2217
I20
sVB-NP+jj
p2218
I14
sVO+to
p2219
I172
sVI-VP+vbp
p2220
I13
sVI-VP+md
p2221
I23
sVNone+nn
p2222
I10
sVB-PP+jj
p2223
I3
sVI-VP+vbz
p2224
I47
sVO+pos
p2225
I3
sVI-NP+rbs
p2226
I3
sVI-NP+rbr
p2227
I1
sVI-PP+vbg
p2228
I2
sVO+jjr
p2229
I1
sVO+cc
p2230
I1
sVB-PP+vb
p2231
I7
sVI-VP+vbg
p2232
I79
sVI-VP+rb
p2233
I4
sVI-PP+vbn
p2234
I3
sVI-NP+to
p2235
I457
sVB-NP+,
p2236
I2
sVB-PP+rb
p2237
I14
sVO+vbn
p2238
I82
sVB-NP+vb
p2239
I95
sVB-VP+vbz
p2240
I171
sVB-NP+md
p2241
I702
sVO+prp
p2242
I3
sVO+vbd
p2243
I1386
sVB-VP+vbp
p2244
I63
sVI-NP+dt
p2245
I2
sVB-PP+nn
p2246
I19
sVB-VP+vbn
p2247
I29
sVI-VP+pos
p2248
I1
sVNone+jj
p2249
I3
sVB-NP+rb
p2250
I36
sVB-VP+vbd
p2251
I235
sVB-VP+vbg
p2252
I103
sVO+nn
p2253
I40
sVO+vbp
p2254
I827
sVI-VP+nn
p2255
I11
sVB-VP+to
p2256
I270
sVB-PP+md
p2257
I58
sVB-PP+vbz
p2258
I82
sVNone+vbp
p2259
I207
sVI-VP+vb
p2260
I36
sVNone+vbz
p2261
I367
sVB-PP+vbp
p2262
I72
sVI-NP+,
p2263
I2
sVB-PP+vbn
p2264
I77
sVB-NP+pos
p2265
I1
sVNone+vbd
p2266
I494
sVNone+to
p2267
I40
sVB-NP+nnp
p2268
I4
sVNone+vbn
p2269
I59
sVB-PP+vbd
p2270
I139
sVB-NP+nns
p2271
I66
sVB-NP+rbr
p2272
I1
sVI-PP+to
p2273
I1
sVI-NP+rb
p2274
I76
sVB-PP+vbg
p2275
I108
sVI-NP+vbz
p2276
I1133
sVI-NP+nns
p2277
I51
sVO+rb
p2278
I32
sVI-NP+vbp
p2279
I677
sVO+vb
p2280
I87
sVB-NP+rbs
p2281
I1
sVI-VP+nns
p2282
I1
sVB-VP+rb
p2283
I9
sVI-NP+``
p2284
I1
sVI-NP+vbn
p2285
I463
sVI-NP+md
p2286
I605
sVI-NP+vbd
p2287
I2113
sVI-NP+vbg
p2288
I616
sVB-VP+nn
p2289
I12
sVI-NP+jj
p2290
I19
sVI-VP+to
p2291
I190
sVI-NP+nn
p2292
I84
sVI-NP+vb
p2293
I133
sVB-NP+vbn
p2294
I361
sVB-VP+nnp
p2295
I1
sVI-PP+md
p2296
I1
sVB-VP+nns
p2297
I1
sVB-NP+vbp
p2298
I890
sVI-NP+nnp
p2299
I4
sVNone+sym
p2300
I2
sVI-VP+vbd
p2301
I22
sVB-NP+``
p2302
I4
sVB-NP+in
p2303
I1
sVB-PP+to
p2304
I105
stRp2305
sg34
I322
sg35
F21628
sbs(g18
g1535
tp2306
g1
(g25
g3
NtRp2307
(dp2308
g28
F0.5
sg29
I63307
sg30
g31
((dp2309
g2084
I25539
sVB-NP
p2310
I37768
stRp2311
sg34
I8
sg35
F63311
sbs(g17
g1535
tp2312
g1
(g25
g3
NtRp2313
(dp2314
g28
F0.5
sg29
I12003
sg30
g31
((dp2315
g17
I3958
sg19
I8045
stRp2316
sg34
I8
sg35
F12007
sbs(g16
g1535
tp2317
g1
(g25
g3
NtRp2318
(dp2319
g28
F0.5
sg29
I21281
sg30
g31
((dp2320
g1930
I17
sVB-PP
p2321
I386
sVI-VP
p2322
I1733
sVO
I3036
sVI-NP
p2323
I9880
sVB-VP
p2324
I2095
sg20
I3146
sNI988
stRp2325
sg34
I8
sg35
F21285
sbs(g19
g1925
tp2326
g1
(g25
g3
NtRp2327
(dp2328
g28
F0.5
sg29
I21467
sg30
g31
((dp2329
VI-PP
p2330
I8
sVB-PP
p2331
I690
sVI-VP
p2332
I448
sVO
I4652
sVI-NP
p2333
I6443
sVB-VP
p2334
I1052
sg2310
I6690
sNI1484
stRp2335
sg34
I8
sg35
F21471
sbs(g20
g74
tp2336
g1
(g25
g3
NtRp2337
(dp2338
g28
F0.5
sg29
I55081
sg30
g31
((dp2339
Vvb
p2340
I1237
sVcc
p2341
I834
sVjjs
p2342
I59
sVpos
p2343
I37
sVcd
p2344
I1699
sg1894
I524
sVvbn
p2345
I1919
sVex
p2346
I113
sVin
p2347
I1971
sVnns
p2348
I5328
sVnnp
p2349
I4510
sVnnps
p2350
I148
sVrp
p2351
I9
sV$
I221
sVnn
p2352
I11429
sV)
I86
sV(
I32
sV,
I3164
sV.
I18
sVto
p2353
I1941
sVrb
p2354
I2268
sV:
I249
sV``
p2355
I213
sVfw
p2356
I4
sVsym
p2357
I1
sVjjr
p2358
I199
sVjj
p2359
I1364
sVwp
p2360
I151
sVwrb
p2361
I50
sVdt
p2362
I1305
sVmd
p2363
I758
sVprp$
p2364
I64
sVvbg
p2365
I725
sVvbd
p2366
I1362
sVrbs
p2367
I51
sVrbr
p2368
I30
sVvbp
p2369
I604
sVwdt
p2370
I320
sVuh
p2371
I4
sVvbz
p2372
I982
sNI8074
sVprp
p2373
I1024
stRp2374
sg34
I45
sg35
F55103.5
sbs(g16
g1925
tp2375
g1
(g25
g3
NtRp2376
(dp2377
g28
F0.5
sg29
I21281
sg30
g31
((dp2378
VI-PP
p2379
I19
sVB-PP
p2380
I1289
sVI-VP
p2381
I1496
sVO
I1880
sVI-NP
p2382
I6229
sVB-VP
p2383
I2288
sVB-NP
p2384
I6655
sNI1425
stRp2385
sg34
I8
sg35
F21285
sbs(g17
g878
tp2386
g1
(g25
g3
NtRp2387
(dp2388
g28
F0.5
sg29
I12003
sg30
g31
((dp2389
g883
I11975
sg884
I28
stRp2390
sg34
I3
sg35
F12004.5
sbs(g16
g1505
tp2391
g1
(g25
g3
NtRp2392
(dp2393
g28
F0.5
sg29
I21281
sg30
g31
((dp2394
Vbd
p2395
I4
sVvb
p2396
I6
sVbg
p2397
I207
sVbr
p2398
I3
sVcc
p2399
I70
sVbn
p2400
I78
sg1828
I2
sVjr
p2401
I2
sVjs
p2402
I1
sg1830
I1
sVbp
p2403
I1
sVjj
p2404
I92
sVin
p2405
I18683
sVdt
p2406
I5
sVrp
p2407
I9
sVnn
p2408
I15
sV,
I15
sVto
p2409
I2013
sVrb
p2410
I72
sV:
I2
stRp2411
sg34
I39
sg35
F21300.5
sbs(g18
g1925
tp2412
g1
(g25
g3
NtRp2413
(dp2414
g28
F0.5
sg29
I63307
sg30
g31
((dp2415
g15
I178
sg16
I14456
sg1952
I3135
sVO
I7699
sg1953
I11553
sg1954
I5357
sVB-NP
p2416
I17073
sNI3856
stRp2417
sg34
I8
sg35
F63311
sbs(g20
g1547
tp2418
g1
(g25
g3
NtRp2419
(dp2420
g28
F0.5
sg29
I55081
sg30
g31
((dp2421
Vvb
p2422
I124
sVcc
p2423
I18
sVjjs
p2424
I47
sVpos
p2425
I1750
sVcd
p2426
I3153
sg1853
I10
sVvbn
p2427
I187
sVex
p2428
I189
sVin
p2429
I418
sVwp$
p2430
I35
sVnns
p2431
I3464
sVnnp
p2432
I8314
sV#
I19
sVnnps
p2433
I77
sVwrb
p2434
I17
sV$
I1309
sVnn
p2435
I5160
sV(
I2
sV,
I24
sVrb
p2436
I621
sV:
I8
sg1866
I40
sVfw
p2437
I7
sVjjr
p2438
I382
sVjj
p2439
I4304
sVwp
p2440
I525
sVdt
p2441
I17807
sVprp$
p2442
I1858
sVvbg
p2443
I188
sVvbd
p2444
I25
sVpdt
p2445
I44
sVrbs
p2446
I82
sVrbr
p2447
I61
sVvbp
p2448
I10
sVwdt
p2449
I949
sVvbz
p2450
I49
sVprp
p2451
I3804
stRp2452
sg34
I44
sg35
F55103
sbs(g20
g1819
tp2453
g1
(g25
g3
NtRp2454
(dp2455
g28
F0.5
sg29
I55081
sg30
g31
((dp2456
Vvb
p2457
I124
sVcc
p2458
I18
sVjjs
p2459
I47
sVpos
p2460
I1750
sVcd
p2461
I3153
sg1853
I10
sVvbn
p2462
I187
sVex
p2463
I189
sVin
p2464
I418
sVwp$
p2465
I35
sVnns
p2466
I3464
sVnnp
p2467
I8314
sV#
I19
sVwrb
p2468
I17
sV$
I1309
sVnn
p2469
I5160
sV(
I2
sV,
I24
sVrb
p2470
I621
sV:
I8
sg1866
I40
sVfw
p2471
I7
sVjjr
p2472
I382
sVrp$
p2473
I1858
sVjj
p2474
I4304
sVwp
p2475
I525
sVdt
p2476
I17807
sVnps
p2477
I77
sVvbg
p2478
I188
sVvbd
p2479
I25
sVpdt
p2480
I44
sVrbs
p2481
I82
sVrbr
p2482
I61
sVvbp
p2483
I10
sVwdt
p2484
I949
sVvbz
p2485
I49
sVprp
p2486
I3804
stRp2487
sg34
I44
sg35
F55103
sbs(g15
g1505
tp2488
g1
(g25
g3
NtRp2489
(dp2490
g28
F0.5
sg29
I291
sg30
g31
((dp2491
Vto
p2492
I5
sVbg
p2493
I1
sVjj
p2494
I1
sVrb
p2495
I9
sVin
p2496
I250
sVcc
p2497
I24
sVdt
p2498
I1
stRp2499
sg34
I39
sg35
F310.5
sbs(g17
g1547
tp2500
g1
(g25
g3
NtRp2501
(dp2502
g28
F0.5
sg29
I12003
sg30
g31
((dp2503
Vvb
p2504
I5388
sVmd
p2505
I4
sVcc
p2506
I104
sVjjs
p2507
I2
sVjjr
p2508
I11
sV,
I9
sg2013
I2
sVvbn
p2509
I2806
sVjj
p2510
I49
sVin
p2511
I20
sVdt
p2512
I7
sVnns
p2513
I4
sVnnp
p2514
I2
sg2020
I16
sVvbg
p2515
I955
sVnn
p2516
I77
sVvbd
p2517
I113
sV(
I1
sVrbs
p2518
I5
sVrbr
p2519
I5
sVto
p2520
I1110
sVvbp
p2521
I24
sVrb
p2522
I1258
sVvbz
p2523
I31
stRp2524
sg34
I44
sg35
F12025
sbs(g20
g117
tp2525
g1
(g25
g3
NtRp2526
(dp2527
g28
F0.5
sg29
I55081
sg30
g31
((dp2528
VNone+jjs
p2529
I46
sVNone+jjr
p2530
I19
sVI-VP+wdt
p2531
I21
sVB-NP+prp$
p2532
I307
sVI-NP+wrb
p2533
I1
sVNone+$
p2534
I7
sVI-NP+jjs
p2535
I1
sVI-NP+jjr
p2536
I109
sVO+wdt
p2537
I52
sVB-PP+dt
p2538
I466
sVB-VP+in
p2539
I65
sVNone+:
p2540
I4
sVB-PP+wdt
p2541
I64
sVI-NP+,
p2542
I5
sVB-NP+vb
p2543
I18
sVI-VP+nnps
p2544
I7
sVB-PP+vbn
p2545
I8
sVB-VP+rbr
p2546
I6
sVB-VP+rbs
p2547
I12
sVB-PP+wp
p2548
I41
sVI-PP+prp$
p2549
I3
sVI-VP+dt
p2550
I1418
sVI-PP+jj
p2551
I2
sVO+``
p2552
I4
sVB-VP+``
p2553
I7
sVB-VP+$
p2554
I163
sVO+nns
p2555
I527
sVB-PP+nns
p2556
I135
sVB-PP+nnp
p2557
I176
sVO+nnp
p2558
I1165
sVB-VP+jj
p2559
I517
sVO+$
p2560
I288
sVB-NP+nn
p2561
I697
sVI-VP+#
p2562
I1
sVI-NP+pdt
p2563
I10
sVI-VP+$
p2564
I53
sVI-NP+vbg
p2565
I77
sVI-NP+cd
p2566
I1218
sVNone+#
p2567
I1
sVI-NP+cc
p2568
I5
sVB-PP+vbg
p2569
I4
sVB-NP+wdt
p2570
I251
sVB-NP+wp
p2571
I127
sVNone+wp
p2572
I50
sVB-NP+pdt
p2573
I6
sVNone+nn
p2574
I605
sVB-NP+fw
p2575
I2
sVI-VP+ex
p2576
I9
sVB-VP+pdt
p2577
I9
sVI-NP+wdt
p2578
I526
sVI-NP+rbs
p2579
I26
sVI-NP+rbr
p2580
I18
sVNone+rbr
p2581
I14
sVO+cd
p2582
I565
sVB-PP+vb
p2583
I8
sVI-VP+rb
p2584
I55
sVI-PP+cd
p2585
I3
sVO+''
p2586
I1
sVB-NP+nnps
p2587
I8
sVNone+ex
p2588
I67
sVB-VP+vbz
p2589
I9
sVI-VP+jjr
p2590
I37
sVI-NP+prp$
p2591
I565
sVO+jjr
p2592
I67
sVB-VP+ex
p2593
I7
sVI-NP+dt
p2594
I5440
sVI-PP+prp
p2595
I2
sVB-VP+vbn
p2596
I30
sVI-NP+vbz
p2597
I12
sVB-NP+rb
p2598
I113
sVB-VP+vbd
p2599
I4
sVO+wp
p2600
I63
sVO+nn
p2601
I806
sVI-VP+nn
p2602
I356
sVNone+vbn
p2603
I15
sVO+rb
p2604
I80
sVNone+wp$
p2605
I1
sVI-NP+$
p2606
I638
sVI-NP+in
p2607
I153
sVI-NP+(
p2608
I1
sVB-PP+pdt
p2609
I1
sVO+fw
p2610
I3
sVB-NP+pos
p2611
I879
sVB-NP+nnp
p2612
I1069
sVI-NP+:
p2613
I1
sVB-NP+nns
p2614
I457
sVNone+cc
p2615
I5
sVI-NP+rb
p2616
I186
sVNone+pos
p2617
I91
sVB-PP+''
p2618
I5
sVI-VP+vbg
p2619
I14
sVO+vb
p2620
I26
sVB-VP+rb
p2621
I100
sVNone+pdt
p2622
I5
sVI-VP+nns
p2623
I306
sVB-PP+ex
p2624
I3
sVI-NP+vbn
p2625
I62
sVO+in
p2626
I49
sVB-PP+pos
p2627
I304
sVI-NP+vbd
p2628
I7
sVNone+dt
p2629
I2660
sVI-NP+ex
p2630
I25
sVI-NP+jj
p2631
I1510
sVB-PP+$
p2632
I15
sVI-VP+pdt
p2633
I6
sVB-PP+,
p2634
I3
sVB-NP+in
p2635
I84
sVB-VP+''
p2636
I2
sVB-VP+cd
p2637
I328
sVB-VP+prp
p2638
I325
sVB-NP+``
p2639
I11
sVI-NP+prp
p2640
I790
sVI-VP+``
p2641
I5
sVB-NP+cc
p2642
I3
sVB-PP+wp$
p2643
I2
sVB-NP+cd
p2644
I613
sVO+vbn
p2645
I38
sVB-PP+prp
p2646
I103
sVI-PP+jjr
p2647
I2
sVB-PP+prp$
p2648
I61
sVI-PP+pos
p2649
I4
sVO+dt
p2650
I2511
sVB-VP+wrb
p2651
I4
sVB-PP+``
p2652
I1
sVO+ex
p2653
I51
sVNone+nns
p2654
I496
sVI-NP+fw
p2655
I1
sVNone+nnp
p2656
I2009
sVI-NP+wp
p2657
I188
sVO+jj
p2658
I541
sVI-PP+nn
p2659
I5
sVI-NP+pos
p2660
I234
sVNone+wdt
p2661
I12
sVNone+vb
p2662
I11
sVNone+rb
p2663
I74
sVNone+in
p2664
I20
sVI-NP+``
p2665
I10
sVI-NP+wp$
p2666
I23
sVO+pdt
p2667
I7
sVB-NP+''
p2668
I2
sVB-VP+wp$
p2669
I1
sVO+vbd
p2670
I5
sVI-VP+rbs
p2671
I8
sVI-VP+rbr
p2672
I4
sVB-PP+cc
p2673
I3
sVB-PP+cd
p2674
I49
sVI-NP+nnps
p2675
I34
sVB-NP+vbg
p2676
I32
sVB-NP+jj
p2677
I690
sVB-VP+#
p2678
I2
sVNone+vbg
p2679
I10
sVI-VP+wrb
p2680
I7
sVB-VP+dt
p2681
I2347
sVI-VP+in
p2682
I36
sVB-NP+wp$
p2683
I7
sVB-NP+:
p2684
I1
sVB-PP+jj
p2685
I134
sVI-VP+vbz
p2686
I6
sVB-PP+nnps
p2687
I1
sVO+pos
p2688
I154
sVNone+jj
p2689
I557
sVO+wrb
p2690
I2
sVB-NP+#
p2691
I4
sVI-VP+vb
p2692
I19
sVI-VP+vbd
p2693
I3
sVB-NP+$
p2694
I145
sVB-VP+cc
p2695
I1
sVB-VP+prp$
p2696
I302
sVB-NP+,
p2697
I14
sVI-VP+vbn
p2698
I18
sVB-PP+rbr
p2699
I5
sVB-PP+rbs
p2700
I1
sVB-VP+jjr
p2701
I78
sVNone+nnps
p2702
I8
sVO+prp$
p2703
I269
sVO+vbg
p2704
I26
sVO+prp
p2705
I956
sVB-NP+jjr
p2706
I62
sVI-VP+prp
p2707
I189
sVB-PP+fw
p2708
I1
sVB-PP+nn
p2709
I197
sVB-VP+nnps
p2710
I12
sVI-VP+pos
p2711
I42
sVO+vbz
p2712
I10
sVB-VP+wp
p2713
I28
sVB-PP+jjr
p2714
I8
sVO+nnps
p2715
I7
sVI-PP+dt
p2716
I19
sVO+vbp
p2717
I6
sVB-NP+prp
p2718
I507
sVB-VP+vbg
p2719
I25
sVB-PP+vbz
p2720
I1
sVNone+vbp
p2721
I1
sVI-VP+wp
p2722
I28
sVO+:
p2723
I1
sVB-NP+ex
p2724
I27
sVNone+vbz
p2725
I3
sVB-PP+vbp
p2726
I1
sVO+rbs
p2727
I20
sVO+rbr
p2728
I4
sVO+#
p2729
I2
sVB-VP+wdt
p2730
I21
sVNone+cd
p2731
I216
sVI-VP+jj
p2732
I353
sVO+(
p2733
I1
sVB-PP+vbd
p2734
I4
sVB-NP+wrb
p2735
I3
sVO+wp$
p2736
I1
sVO+,
p2737
I2
sVB-PP+rb
p2738
I13
sVNone+rbs
p2739
I6
sVI-NP+#
p2740
I9
sVI-VP+prp$
p2741
I224
sVNone+``
p2742
I2
sVI-VP+cd
p2743
I161
sVB-NP+rbr
p2744
I10
sVB-NP+rbs
p2745
I9
sVI-VP+nnp
p2746
I275
sVI-VP+cc
p2747
I1
sVNone+prp
p2748
I932
sVI-PP+nns
p2749
I2
sVB-PP+in
p2750
I11
sVB-VP+pos
p2751
I42
sVI-PP+nnp
p2752
I2
sVB-PP+:
p2753
I1
sVB-VP+nn
p2754
I634
sVB-NP+vbd
p2755
I2
sVB-NP+dt
p2756
I2946
sVNone+prp$
p2757
I127
sVI-NP+nn
p2758
I1860
sVB-NP+vbn
p2759
I16
sVI-PP+wdt
p2760
I2
sVB-VP+nnp
p2761
I537
sVB-VP+nns
p2762
I491
sVB-NP+vbp
p2763
I2
sVI-NP+nnp
p2764
I3081
sVI-NP+nns
p2765
I1050
sVB-VP+vb
p2766
I14
sVI-NP+vb
p2767
I28
sVB-NP+vbz
p2768
I8
stRp2769
sg34
I322
sg35
F55242
sbs(g16
g74
tp2770
g1
(g25
g3
NtRp2771
(dp2772
g28
F0.5
sg29
I21281
sg30
g31
((dp2773
Vvb
p2774
I753
sVcc
p2775
I402
sVjjs
p2776
I64
sVpos
p2777
I206
sVcd
p2778
I1464
sV''
p2779
I39
sVvbn
p2780
I523
sVprp
p2781
I233
sVin
p2782
I1352
sVwp$
p2783
I3
sVnns
p2784
I953
sVnnp
p2785
I1008
sVnnps
p2786
I25
sVwrb
p2787
I6
sV$
I100
sVnn
p2788
I2512
sV)
I17
sV(
I6
sV,
I788
sV.
I4
sVto
p2789
I427
sVrb
p2790
I671
sV:
I46
sV``
p2791
I64
sVfw
p2792
I1
sVsym
p2793
I1
sVjjr
p2794
I126
sVjj
p2795
I2400
sVwp
p2796
I41
sVrp
p2797
I11
sVdt
p2798
I2989
sVmd
p2799
I195
sVprp$
p2800
I290
sVvbg
p2801
I434
sVvbd
p2802
I804
sVpdt
p2803
I1
sVrbs
p2804
I17
sVrbr
p2805
I36
sVvbp
p2806
I311
sVwdt
p2807
I85
sVuh
p2808
I1
sVvbz
p2809
I446
sNI1425
sVex
p2810
I1
stRp2811
sg34
I45
sg35
F21303.5
sbs(g16
g117
tp2812
g1
(g25
g3
NtRp2813
(dp2814
g28
F0.5
sg29
I21281
sg30
g31
((dp2815
VB-NP+cc
p2816
I21
sVB-NP+to
p2817
I687
sVNone+rb
p2818
I12
sVB-VP+in
p2819
I1923
sVB-VP+jj
p2820
I5
sVNone+vbg
p2821
I40
sVI-PP+jj
p2822
I1
sVNone+in
p2823
I1315
sVI-NP+``
p2824
I1
sVNone+vb
p2825
I1
sVI-NP+vbg
p2826
I113
sVB-NP+nn
p2827
I2
sVI-NP+:
p2828
I1
sVB-PP+cc
p2829
I11
sVI-NP+vbd
p2830
I2
sVI-VP+to
p2831
I188
sVI-NP+cc
p2832
I29
sVB-NP+jj
p2833
I26
sVO+to
p2834
I205
sVB-NP+dt
p2835
I2
sVI-VP+in
p2836
I1293
sVB-PP+jj
p2837
I11
sVB-PP+rp
p2838
I1
sVI-NP+rbr
p2839
I1
sVB-VP+to
p2840
I332
sVO+cc
p2841
I3
sVI-PP+to
p2842
I1
sVI-VP+vbg
p2843
I5
sVI-VP+rb
p2844
I4
sVB-VP+cc
p2845
I4
sVI-NP+to
p2846
I443
sVO+''
p2847
I1
sVB-NP+,
p2848
I8
sVB-PP+rb
p2849
I3
sVO+vbn
p2850
I4
sVB-NP+vb
p2851
I4
sVB-NP+rp
p2852
I5
sVO+jj
p2853
I8
sVI-VP+jjr
p2854
I1
sVO+vbg
p2855
I11
sVB-NP+jjr
p2856
I1
sVO+vbd
p2857
I1
sVI-NP+dt
p2858
I2
sVB-PP+nn
p2859
I6
sVB-VP+vbn
p2860
I3
sVB-NP+rb
p2861
I14
sVB-VP+vbd
p2862
I1
sVB-VP+vbg
p2863
I7
sVB-NP+in
p2864
I5842
sVO+vbp
p2865
I1
sVI-VP+nn
p2866
I1
sVB-PP+in
p2867
I1139
sVO+rb
p2868
I7
sVI-NP+in
p2869
I5518
sVI-NP+,
p2870
I6
sVB-PP+vbn
p2871
I2
sVB-PP+jjs
p2872
I1
sVNone+to
p2873
I49
sVNone+vbn
p2874
I5
sVNone+cc
p2875
I1
sVO+nn
p2876
I2
sVI-NP+rb
p2877
I23
sVB-PP+vbg
p2878
I5
sVNone+``
p2879
I1
sVB-NP+rbr
p2880
I2
sVI-VP+cc
p2881
I1
sVB-VP+rb
p2882
I9
sVI-NP+rp
p2883
I1
sVO+rp
p2884
I1
sVI-NP+vbn
p2885
I46
sVO+in
p2886
I1636
sVB-VP+rp
p2887
I1
sVNone+dt
p2888
I1
sVB-VP+nn
p2889
I3
sVI-NP+jj
p2890
I41
sVB-NP+vbg
p2891
I26
sVI-NP+nn
p2892
I1
sVB-NP+vbn
p2893
I15
sVB-PP+,
p2894
I1
sVI-PP+in
p2895
I17
sVB-PP+:
p2896
I1
sVI-VP+vbn
p2897
I3
sVI-NP+vb
p2898
I1
sVB-PP+to
p2899
I108
stRp2900
sg34
I322
sg35
F21442
sbs(g17
g117
tp2901
g1
(g25
g3
NtRp2902
(dp2903
g28
F0.5
sg29
I12003
sg30
g31
((dp2904
VI-VP+``
p2905
I3
sVB-NP+cc
p2906
I17
sVB-VP+,
p2907
I4
sVB-NP+to
p2908
I292
sVI-NP+jjr
p2909
I2
sVB-VP+md
p2910
I2
sVO+dt
p2911
I1
sVB-VP+in
p2912
I7
sVB-NP+vbg
p2913
I287
sVNone+vbg
p2914
I1
sVB-VP+rbr
p2915
I1
sVI-VP+vbn
p2916
I236
sVO+jj
p2917
I2
sVNone+vbn
p2918
I5
sVNone+vb
p2919
I27
sVNone+rb
p2920
I1
sVO+md
p2921
I2
sVO+vbg
p2922
I89
sVO+``
p2923
I1
sVB-VP+``
p2924
I4
sVB-NP+''
p2925
I1
sVO+nnp
p2926
I2
sVB-NP+vbd
p2927
I42
sVB-NP+nn
p2928
I8
sVB-PP+cc
p2929
I5
sVB-VP+vb
p2930
I1414
sVB-VP+(
p2931
I1
sVB-NP+dt
p2932
I3
sVI-NP+cc
p2933
I9
sVB-NP+jj
p2934
I10
sVO+to
p2935
I128
sVI-VP+vbp
p2936
I3
sVI-VP+in
p2937
I3
sVI-NP+rbs
p2938
I3
sVI-NP+rbr
p2939
I3
sVO+jjs
p2940
I2
sVO+jjr
p2941
I2
sVO+cc
p2942
I9
sVB-PP+vb
p2943
I4
sVI-VP+vbg
p2944
I50
sVI-VP+rb
p2945
I18
sVB-VP+cc
p2946
I43
sVI-NP+to
p2947
I206
sVO+''
p2948
I1
sVB-NP+,
p2949
I1
sVB-PP+rb
p2950
I1
sVO+vbn
p2951
I279
sVB-VP+jjr
p2952
I2
sVB-NP+vb
p2953
I1024
sVB-VP+vbz
p2954
I11
sVI-VP+jjr
p2955
I3
sVI-NP+``
p2956
I3
sVB-NP+jjr
p2957
I2
sVO+vbd
p2958
I19
sVB-VP+vbp
p2959
I4
sVI-NP+dt
p2960
I3
sVB-PP+nn
p2961
I1
sVB-VP+vbn
p2962
I824
sVO+vbz
p2963
I9
sVB-NP+rb
p2964
I528
sVB-VP+vbd
p2965
I12
sVB-VP+vbg
p2966
I224
sVO+nn
p2967
I10
sVO+vbp
p2968
I7
sVI-VP+nn
p2969
I21
sVB-VP+to
p2970
I346
sVI-VP+vb
p2971
I617
sVI-VP+,
p2972
I3
sVI-NP+in
p2973
I3
sVB-VP+jj
p2974
I19
sVB-PP+vbn
p2975
I10
sVB-NP+in
p2976
I3
sVI-VP+jj
p2977
I8
sVB-PP+vbg
p2978
I6
sVB-PP+vbd
p2979
I1
sVO+,
p2980
I1
sVI-PP+to
p2981
I2
sVI-NP+rb
p2982
I434
sVI-NP+vbz
p2983
I3
sVB-NP+rbr
p2984
I1
sVO+rb
p2985
I175
sVI-NP+vbp
p2986
I2
sVO+vb
p2987
I707
sVB-NP+rbs
p2988
I2
sVI-VP+cc
p2989
I21
sVB-VP+rb
p2990
I101
sVI-NP+vbn
p2991
I852
sVO+in
p2992
I4
sVI-NP+vbd
p2993
I30
sVI-NP+vbg
p2994
I298
sVB-VP+nn
p2995
I26
sVI-NP+jj
p2996
I10
sVI-VP+to
p2997
I117
sVI-NP+nn
p2998
I11
sVB-NP+vbn
p2999
I599
sVI-PP+vbn
p3000
I1
sVB-VP+nns
p3001
I2
sVB-NP+vbp
p3002
I8
sVB-NP+vbz
p3003
I8
sVI-NP+nns
p3004
I2
sVI-VP+vbd
p3005
I9
sVB-NP+``
p3006
I5
sVI-NP+vb
p3007
I1595
sVB-PP+to
p3008
I19
stRp3009
sg34
I322
sg35
F12164
sbs(VO
g36
tp3010
g1
(g25
g3
NtRp3011
(dp3012
g28
F0.5
sg29
I38297
sg30
g31
((dp3013
Vvb
p3014
I1100
sVcc
p3015
I418
sVjjs
p3016
I24
sVjjr
p3017
I133
sVcd
p3018
I1757
sV''
p3019
I137
sVvbn
p3020
I926
sVprp
p3021
I535
sVin
p3022
I726
sVnns
p3023
I5144
sVnnp
p3024
I4557
sV#
I7
sVnnps
p3025
I144
sVwrb
p3026
I40
sV$
I22
sVnn
p3027
I9035
sV)
I117
sV(
I45
sV,
I2758
sV.
I537
sVto
p3028
I35
sVrb
p3029
I2154
sV:
I229
sg2355
I207
sVfw
p3030
I13
sVpos
p3031
I91
sVjj
p3032
I1058
sVwp
p3033
I35
sVrp
p3034
I6
sVdt
p3035
I194
sVmd
p3036
I34
sVprp$
p3037
I9
sVvbg
p3038
I457
sVvbd
p3039
I1481
sVrbs
p3040
I28
sVrbr
p3041
I200
sVvbp
p3042
I660
sVwdt
p3043
I30
sVuh
p3044
I13
sVvbz
p3045
I1155
sNI2031
sVex
p3046
I15
stRp3047
sg34
I45
sg35
F38319.5
sbs(g15
g1535
tp3048
g1
(g25
g3
NtRp3049
(dp3050
g28
F0.5
sg29
I291
sg30
g31
((dp3051
VI-PP
p3052
I19
sVB-PP
p3053
I272
stRp3054
sg34
I8
sg35
F295
sbs(g16
g1547
tp3055
g1
(g25
g3
NtRp3056
(dp3057
g28
F0.5
sg29
I21281
sg30
g31
((dp3058
Vvb
p3059
I6
sVjjr
p3060
I2
sVcc
p3061
I70
sVjjs
p3062
I1
sg1828
I2
sVvbn
p3063
I78
sg1830
I1
sVjj
p3064
I92
sVin
p3065
I18683
sVrp
p3066
I9
sVdt
p3067
I5
sV,
I15
sVvbg
p3068
I207
sVnn
p3069
I15
sVvbd
p3070
I4
sVrbr
p3071
I3
sVto
p3072
I2013
sVvbp
p3073
I1
sVrb
p3074
I72
sV:
I2
stRp3075
sg34
I44
sg35
F21303
sbs(g16
g878
tp3076
g1
(g25
g3
NtRp3077
(dp3078
g28
F0.5
sg29
I21281
sg30
g31
((dp3079
g883
I21261
sg884
I20
stRp3080
sg34
I3
sg35
F21282.5
sbs(g16
g1843
tp3081
g1
(g25
g3
NtRp3082
(dp3083
g28
F0.5
sg29
I21281
sg30
g31
((dp3084
VVB
p3085
I6
sVVBG
p3086
I207
sVVBD
p3087
I4
sVCC
p3088
I70
sg1828
I2
sVRBR
p3089
I3
sVVBN
p3090
I78
sg1830
I1
sVVBP
p3091
I1
sVJJ
p3092
I92
sVIN
p3093
I18683
sVDT
p3094
I5
sVRP
p3095
I9
sVNN
p3096
I15
sVJJS
p3097
I1
sV,
I15
sVTO
p3098
I2013
sVRB
p3099
I72
sV:
I2
sVJJR
p3100
I2
stRp3101
sg34
I44
sg35
F21303
sbs(g18
g36
tp3102
g1
(g25
g3
NtRp3103
(dp3104
g28
F0.5
sg29
I63307
sg30
g31
((dp3105
Vvb
p3106
I85
sVcc
p3107
I1418
sVjjs
p3108
I276
sVpos
p3109
I1653
sVcd
p3110
I5122
sg1557
I93
sVprp
p3111
I5
sVin
p3112
I499
sVwp$
p3113
I35
sVnns
p3114
I720
sVnnp
p3115
I10896
sV#
I29
sVnnps
p3116
I66
sVwrb
p3117
I19
sV$
I1728
sVnn
p3118
I6873
sV)
I6
sV(
I9
sV,
I536
sV.
I14
sVto
p3119
I90
sVrb
p3120
I798
sVrbr
p3121
I89
sV:
I13
sg1568
I196
sVfw
p3122
I20
sVjjr
p3123
I520
sVjj
p3124
I10761
sVwp
p3125
I16
sVdt
p3126
I17540
sVprp$
p3127
I1863
sVvbg
p3128
I416
sVvbd
p3129
I64
sVpdt
p3130
I50
sVrbs
p3131
I114
sVvbn
p3132
I630
sVvbp
p3133
I17
sVwdt
p3134
I19
sVvbz
p3135
I9
stRp3136
sg34
I45
sg35
F63329.5
sbs(VO
g1819
tp3137
g1
(g25
g3
NtRp3138
(dp3139
g28
F0.5
sg29
I38297
sg30
g31
((dp3140
Vvb
p3141
I26
sVcc
p3142
I3746
sVjjs
p3143
I48
sVjjr
p3144
I252
sVcd
p3145
I110
sg1894
I1397
sVex
p3146
I17
sVin
p3147
I3174
sVnns
p3148
I13
sVnnp
p3149
I80
sV#
I7
sVrp
p3150
I74
sV$
I22
sVnn
p3151
I182
sV)
I275
sV(
I264
sV,
I10206
sV.
I8813
sVto
p3152
I41
sVrb
p3153
I4162
sVrbr
p3154
I216
sV:
I1032
sg96
I1310
sVfw
p3155
I3
sVsym
p3156
I4
sVpos
p3157
I2
sVrp$
p3158
I4
sVjj
p3159
I1821
sVwp
p3160
I1
sVwrb
p3161
I459
sVdt
p3162
I212
sVmd
p3163
I37
sVvbg
p3164
I15
sVvbd
p3165
I27
sVpdt
p3166
I5
sVrbs
p3167
I26
sVvbn
p3168
I145
sVvbp
p3169
I24
sVwdt
p3170
I6
sVuh
p3171
I12
sVvbz
p3172
I23
sVprp
p3173
I4
stRp3174
sg34
I44
sg35
F38319
sbs(g20
g862
tp3175
g1
(g25
g3
NtRp3176
(dp3177
g28
F0.5
sg29
I55081
sg30
g31
((dp3178
VNone+jjs
p3179
I41
sVNone+jjr
p3180
I10
sVI-VP+wdt
p3181
I8
sVI-NP+wrb
p3182
I1
sVNone+$
p3183
I6
sVNone+#
p3184
I1
sVI-NP+jjr
p3185
I8
sVO+wdt
p3186
I407
sVB-PP+dt
p3187
I7147
sVB-VP+in
p3188
I76
sVNone+:
p3189
I4
sVB-PP+wdt
p3190
I77
sVI-NP+,
p3191
I17
sVB-NP+vb
p3192
I1
sVB-PP+jjr
p3193
I113
sVB-VP+rbr
p3194
I11
sVNone+vbg
p3195
I9
sVB-PP+wp
p3196
I55
sVI-PP+prp$
p3197
I8
sVO+rbr
p3198
I5
sVI-VP+dt
p3199
I1661
sVI-PP+jj
p3200
I25
sVO+``
p3201
I7
sVB-VP+``
p3202
I6
sVB-VP+$
p3203
I168
sVO+nns
p3204
I791
sVB-PP+nns
p3205
I1303
sVB-PP+nnp
p3206
I3067
sVO+nnp
p3207
I2280
sVB-VP+jj
p3208
I589
sVO+$
p3209
I228
sVI-NP+''
p3210
I2
sVB-NP+nn
p3211
I75
sVI-VP+#
p3212
I1
sVI-VP+$
p3213
I64
sVI-NP+vbg
p3214
I1
sVI-NP+cd
p3215
I109
sVI-NP+cc
p3216
I8
sVI-VP+wp
p3217
I22
sVB-NP+wdt
p3218
I104
sVB-NP+wp
p3219
I81
sVNone+wp
p3220
I29
sVB-NP+pdt
p3221
I1
sVNone+nn
p3222
I403
sVB-NP+fw
p3223
I1
sVI-VP+ex
p3224
I2
sVNone+cc
p3225
I4
sVI-NP+wdt
p3226
I335
sVI-NP+rbs
p3227
I3
sVI-NP+rbr
p3228
I15
sVNone+rbr
p3229
I14
sVO+cd
p3230
I727
sVO+cc
p3231
I1
sVB-PP+vb
p3232
I81
sVI-VP+rb
p3233
I78
sVI-PP+cd
p3234
I3
sVNone+ex
p3235
I28
sVB-VP+vbz
p3236
I8
sVI-VP+jjr
p3237
I71
sVI-NP+prp$
p3238
I13
sVB-VP+vbp
p3239
I2
sVB-VP+ex
p3240
I19
sVI-NP+dt
p3241
I680
sVI-PP+prp
p3242
I1
sVB-VP+vbn
p3243
I22
sVI-VP+prp
p3244
I242
sVB-VP+vbd
p3245
I5
sVB-VP+vbg
p3246
I22
sVO+nn
p3247
I1045
sVI-VP+nn
p3248
I433
sVO+jjs
p3249
I5
sVO+rb
p3250
I137
sVNone+wp$
p3251
I1
sVI-NP+$
p3252
I9
sVI-NP+in
p3253
I95
sVB-PP+pdt
p3254
I15
sVO+fw
p3255
I1
sVB-NP+pos
p3256
I643
sVB-PP+vbn
p3257
I79
sVO+jj
p3258
I923
sVB-PP+wrb
p3259
I2
sVB-NP+nnp
p3260
I83
sVI-NP+:
p3261
I2
sVB-NP+nns
p3262
I38
sVB-VP+pdt
p3263
I8
sVI-NP+rb
p3264
I17
sVI-PP+jjr
p3265
I4
sVI-NP+vbz
p3266
I4
sVI-VP+vbg
p3267
I13
sVI-NP+vbp
p3268
I2
sVO+vb
p3269
I14
sVB-VP+rb
p3270
I130
sVB-VP+rbs
p3271
I6
sVI-VP+nns
p3272
I401
sVB-PP+ex
p3273
I3
sVB-PP+rb
p3274
I199
sVO+in
p3275
I79
sVNone+dt
p3276
I1887
sVI-NP+ex
p3277
I7
sVI-NP+jj
p3278
I129
sVB-PP+#
p3279
I16
sVB-PP+$
p3280
I829
sVI-VP+pdt
p3281
I9
sVB-PP+(
p3282
I2
sVI-PP+rb
p3283
I2
sVB-NP+,
p3284
I5
sVB-VP+prp
p3285
I633
sVI-NP+prp
p3286
I171
sVI-VP+``
p3287
I8
sVB-NP+cc
p3288
I4
sVB-NP+cd
p3289
I45
sVB-PP+rbs
p3290
I32
sVB-PP+prp
p3291
I168
sVB-PP+prp$
p3292
I796
sVO+dt
p3293
I3614
sVB-VP+wrb
p3294
I4
sVB-PP+``
p3295
I18
sVO+ex
p3296
I128
sVNone+nns
p3297
I389
sVNone+nnp
p3298
I1694
sVI-PP+nnp
p3299
I41
sVI-NP+wp
p3300
I141
sVI-PP+wp
p3301
I1
sVB-VP+cd
p3302
I683
sVI-PP+nn
p3303
I30
sVI-NP+pos
p3304
I1104
sVNone+wdt
p3305
I7
sVNone+vb
p3306
I10
sVNone+rb
p3307
I51
sVNone+in
p3308
I14
sVI-NP+wp$
p3309
I10
sVO+pdt
p3310
I11
sVB-NP+''
p3311
I7
sVB-VP+dt
p3312
I2521
sVO+vbd
p3313
I12
sVI-VP+rbs
p3314
I5
sVI-VP+rbr
p3315
I4
sVB-PP+cd
p3316
I1288
sVI-NP+nnps
p3317
I2
sVB-NP+prp$
p3318
I9
sVB-VP+,
p3319
I2
sVB-NP+jj
p3320
I46
sVB-VP+#
p3321
I1
sVI-VP+wrb
p3322
I7
sVI-VP+in
p3323
I44
sVB-NP+wp$
p3324
I4
sVB-NP+:
p3325
I1
sVB-PP+jj
p3326
I1785
sVI-VP+vbz
p3327
I3
sVB-PP+nnps
p3328
I37
sVO+pos
p3329
I2
sVNone+jj
p3330
I377
sVO+wrb
p3331
I2
sVO+jjr
p3332
I75
sVI-VP+vb
p3333
I7
sVI-VP+vbd
p3334
I4
sVB-NP+$
p3335
I5
sVI-PP+vbn
p3336
I6
sVB-VP+prp$
p3337
I361
sVI-VP+''
p3338
I1
sVI-VP+vbn
p3339
I28
sVB-PP+rbr
p3340
I7
sVO+vbn
p3341
I40
sVB-VP+jjr
p3342
I95
sVNone+nnps
p3343
I2
sVO+prp$
p3344
I273
sVO+vbg
p3345
I52
sVO+prp
p3346
I1907
sVB-NP+jjr
p3347
I6
sVB-NP+rb
p3348
I7
sVB-PP+fw
p3349
I3
sVB-PP+nn
p3350
I2391
sVB-VP+nnps
p3351
I2
sVO+vbz
p3352
I17
sVB-VP+wp
p3353
I35
sVI-PP+dt
p3354
I90
sVO+vbp
p3355
I3
sVB-NP+prp
p3356
I161
sVO+wp
p3357
I161
sVB-PP+vbz
p3358
I11
sVO+:
p3359
I1
sVB-NP+ex
p3360
I2
sVNone+vbz
p3361
I1
sVO+rbs
p3362
I34
sVB-PP+jjs
p3363
I1
sVB-VP+wdt
p3364
I11
sVNone+cd
p3365
I138
sVI-VP+jj
p3366
I430
sVNone+vbn
p3367
I12
sVB-PP+vbd
p3368
I2
sVB-NP+wrb
p3369
I1
sVO+wp$
p3370
I20
sVB-VP+fw
p3371
I2
sVI-VP+nnps
p3372
I6
sVB-PP+vbg
p3373
I91
sVI-VP+prp$
p3374
I321
sVNone+``
p3375
I1
sVI-VP+cd
p3376
I160
sVB-NP+rbr
p3377
I5
sVB-NP+rbs
p3378
I2
sVI-VP+nnp
p3379
I230
sVI-VP+cc
p3380
I1
sVNone+prp
p3381
I521
sVI-PP+nns
p3382
I19
sVB-PP+in
p3383
I96
sVB-VP+pos
p3384
I1
sVO+nnps
p3385
I28
sVB-VP+nn
p3386
I684
sVB-NP+vbd
p3387
I2
sVB-NP+dt
p3388
I207
sVNone+prp$
p3389
I77
sVI-NP+nn
p3390
I99
sVB-VP+nnp
p3391
I774
sVB-VP+nns
p3392
I498
sVB-NP+vbp
p3393
I3
sVI-NP+nnp
p3394
I145
sVI-NP+nns
p3395
I25
sVB-VP+vb
p3396
I11
sVB-NP+in
p3397
I14
sVB-NP+vbz
p3398
I5
stRp3399
sg34
I305
sg35
F55233.5
sbs(g18
g1819
tp3400
g1
(g25
g3
NtRp3401
(dp3402
g28
F0.5
sg29
I63307
sg30
g31
((dp3403
Vvb
p3404
I39
sVcc
p3405
I1409
sVjjs
p3406
I276
sVpos
p3407
I12
sVcd
p3408
I5050
sg1557
I83
sVvbn
p3409
I453
sVprp
p3410
I9
sVin
p3411
I216
sVnns
p3412
I9996
sVnnp
p3413
I11470
sV#
I10
sVwrb
p3414
I2
sV$
I419
sVnn
p3415
I24456
sV)
I6
sV(
I7
sV,
I512
sV.
I14
sVto
p3416
I90
sVrb
p3417
I307
sV:
I5
sg1568
I156
sVfw
p3418
I28
sVjjr
p3419
I204
sVrp$
p3420
I19
sVjj
p3421
I6771
sVwp
p3422
I3
sVdt
p3423
I299
sVnps
p3424
I343
sVmd
p3425
I5
sVvbg
p3426
I336
sVvbd
p3427
I49
sVpdt
p3428
I6
sVrbs
p3429
I74
sVrbr
p3430
I34
sVvbp
p3431
I60
sVuh
p3432
I3
sVvbz
p3433
I76
stRp3434
sg34
I44
sg35
F63329
sbs(g17
g1843
tp3435
g1
(g25
g3
NtRp3436
(dp3437
g28
F0.5
sg29
I12003
sg30
g31
((dp3438
g2020
I16
sVVBG
p3439
I955
sVVBD
p3440
I113
sVCC
p3441
I104
sVRBS
p3442
I5
sVVB
p3443
I5388
sVRBR
p3444
I5
sg2013
I2
sVVBP
p3445
I24
sVVBN
p3446
I2806
sVJJ
p3447
I49
sVIN
p3448
I20
sVVBZ
p3449
I31
sVDT
p3450
I7
sVMD
p3451
I4
sVNN
p3452
I77
sV(
I1
sVJJS
p3453
I2
sV,
I9
sVTO
p3454
I1110
sVRB
p3455
I1258
sVNNS
p3456
I4
sVJJR
p3457
I11
sVNNP
p3458
I2
stRp3459
sg34
I44
sg35
F12025
sbs(g19
g862
tp3460
g1
(g25
g3
NtRp3461
(dp3462
g28
F0.5
sg29
I21467
sg30
g31
((dp3463
VNone+vbn
p3464
I30
sVO+vbn
p3465
I355
sVB-NP+to
p3466
I307
sVB-VP+md
p3467
I12
sVO+dt
p3468
I2
sVB-PP+``
p3469
I1
sVNone+nnp
p3470
I5
sVB-NP+vbg
p3471
I129
sVNone+vbg
p3472
I74
sVI-NP+md
p3473
I929
sVO+jj
p3474
I20
sVI-PP+nn
p3475
I1
sVI-NP+pos
p3476
I1
sVNone+rb
p3477
I2
sVO+md
p3478
I266
sVO+vbg
p3479
I535
sVNone+vb
p3480
I32
sVO+nns
p3481
I26
sVB-PP+nnp
p3482
I1
sVO+nnp
p3483
I6
sVB-NP+vbd
p3484
I2302
sVB-NP+nn
p3485
I59
sVB-NP+vbz
p3486
I1847
sVB-VP+vb
p3487
I6
sVB-NP+dt
p3488
I2
sVB-NP+jj
p3489
I9
sVO+to
p3490
I489
sVI-VP+vbp
p3491
I3
sVI-VP+md
p3492
I7
sVB-PP+jj
p3493
I5
sVI-VP+vbz
p3494
I14
sVO+pos
p3495
I1
sVI-NP+rbs
p3496
I4
sVI-NP+rbr
p3497
I1
sVB-VP+to
p3498
I85
sVO+jjr
p3499
I2
sVO+cd
p3500
I2
sVO+cc
p3501
I1
sVB-PP+vb
p3502
I2
sVI-VP+vbg
p3503
I6
sVI-VP+rb
p3504
I1
sVB-PP+rb
p3505
I6
sVI-NP+to
p3506
I842
sVO+vbz
p3507
I969
sVB-NP+sym
p3508
I2
sVB-NP+vb
p3509
I64
sVB-VP+vbz
p3510
I17
sVB-NP+md
p3511
I906
sVO+vbd
p3512
I1194
sVB-VP+vbp
p3513
I6
sVB-PP+nn
p3514
I37
sVB-VP+vbn
p3515
I5
sVNone+jj
p3516
I1
sVB-NP+rb
p3517
I43
sVB-VP+vbd
p3518
I12
sVB-VP+vbg
p3519
I9
sVO+nn
p3520
I88
sVO+vbp
p3521
I361
sVI-VP+nn
p3522
I1
sVI-PP+vbg
p3523
I9
sVB-PP+md
p3524
I1
sVB-PP+vbz
p3525
I5
sVI-VP+vb
p3526
I4
sVNone+vbz
p3527
I12
sVI-NP+,
p3528
I4
sVB-PP+vbn
p3529
I2
sVO+rbr
p3530
I1
sVB-NP+pos
p3531
I3
sVNone+vbd
p3532
I5
sVNone+to
p3533
I25
sVB-NP+nnp
p3534
I3
sVB-PP+vbg
p3535
I509
sVB-NP+nns
p3536
I27
sVI-VP+vbd
p3537
I3
sVI-NP+rb
p3538
I53
sVI-NP+vbz
p3539
I1605
sVO+rb
p3540
I72
sVI-NP+vbp
p3541
I989
sVO+vb
p3542
I258
sVB-NP+prp
p3543
I3
sVB-VP+rb
p3544
I1
sVI-NP+``
p3545
I2
sVI-NP+vbn
p3546
I531
sVO+in
p3547
I3
sVI-NP+vbd
p3548
I3011
sVI-NP+vbg
p3549
I299
sVB-VP+nn
p3550
I2
sVI-NP+jj
p3551
I12
sVI-VP+to
p3552
I71
sVI-NP+nn
p3553
I69
sVB-NP+vbn
p3554
I171
sVB-NP+vbp
p3555
I1390
sVI-NP+nnp
p3556
I3
sVI-NP+nns
p3557
I89
sVB-NP+``
p3558
I4
sVI-NP+vb
p3559
I68
sVB-PP+to
p3560
I3
stRp3561
sg34
I305
sg35
F21619.5
sbs(g17
g74
tp3562
g1
(g25
g3
NtRp3563
(dp3564
g28
F0.5
sg29
I12003
sg30
g31
((dp3565
Vvb
p3566
I287
sVcc
p3567
I236
sVjjs
p3568
I3
sVjjr
p3569
I15
sVcd
p3570
I104
sV''
p3571
I29
sVvbn
p3572
I367
sVex
p3573
I42
sVin
p3574
I91
sVnns
p3575
I1564
sVnnp
p3576
I775
sVnnps
p3577
I54
sVwrb
p3578
I13
sVnn
p3579
I2024
sV)
I22
sV(
I2
sV,
I438
sV.
I1
sVto
p3580
I253
sVrb
p3581
I614
sV:
I38
sV``
p3582
I55
sVpos
p3583
I4
sVjj
p3584
I278
sVwp
p3585
I153
sVdt
p3586
I77
sVmd
p3587
I837
sVvbg
p3588
I187
sVvbd
p3589
I589
sVrbs
p3590
I4
sVrbr
p3591
I10
sVvbp
p3592
I595
sVwdt
p3593
I317
sVvbz
p3594
I677
sNI34
sVprp
p3595
I1214
stRp3596
sg34
I45
sg35
F12025.5
sbs(g19
g1843
tp3597
g1
(g25
g3
NtRp3598
(dp3599
g28
F0.5
sg29
I21467
sg30
g31
((dp3600
g1518
I7
sVVBG
p3601
I1570
sVVBD
p3602
I6527
sVCC
p3603
I1
sVRBS
p3604
I4
sVVBN
p3605
I1094
sVPOS
p3606
I5
sVVBP
p3607
I2749
sVJJ
p3608
I47
sVIN
p3609
I3
sVVBZ
p3610
I4469
sVDT
p3611
I4
sVCD
p3612
I2
sVMD
p3613
I2121
sVNN
p3614
I257
sVRBR
p3615
I2
sV,
I4
sVSYM
p3616
I2
sVVB
p3617
I434
sVTO
p3618
I1822
sVPRP
p3619
I3
sVRB
p3620
I178
sVNNS
p3621
I142
sVJJR
p3622
I2
sVNNP
p3623
I18
stRp3624
sg34
I44
sg35
F21489
sbs(g15
g878
tp3625
g1
(g25
g3
NtRp3626
(dp3627
g28
F0.5
sg29
I291
sg30
g31
((dp3628
g883
I291
stRp3629
sg34
I3
sg35
F292.5
sbs(g16
g23
tp3630
g1
(g25
g3
NtRp3631
(dp3632
g28
F0.5
sg29
I21281
sg30
g31
((dp3633
V`
I2
sVc
I70
sVb
I78
sVd
I4
sVg
I207
sV:
I2
sVj
I92
sV,
I15
sVo
I2013
sVn
I18776
sVp
I10
sVs
I1
sV'
I1
sVt
I5
sVr
I5
stRp3634
sg34
I25
sg35
F21293.5
sbs(g20
g1505
tp3635
g1
(g25
g3
NtRp3636
(dp3637
g28
F0.5
sg29
I55081
sg30
g31
((dp3638
Vvb
p3639
I124
sVjj
p3640
I4304
sVcc
p3641
I18
sVbs
p3642
I82
sVcd
p3643
I3153
sg1853
I10
sVex
p3644
I189
sVin
p3645
I418
sVps
p3646
I77
sV#
I19
sVrp
p3647
I3804
sV$
I1309
sVnn
p3648
I5160
sV(
I2
sV,
I24
sVrb
p3649
I638
sVnp
p3650
I8314
sVns
p3651
I3464
sVbd
p3652
I25
sg1866
I40
sVbg
p3653
I188
sVfw
p3654
I7
sVbn
p3655
I187
sVjr
p3656
I382
sVjs
p3657
I47
sVbp
p3658
I10
sVbr
p3659
I61
sVwp
p3660
I525
sVdt
p3661
I18800
sVbz
p3662
I49
sV:
I8
sVp$
p3663
I1893
sVos
p3664
I1750
stRp3665
sg34
I39
sg35
F55100.5
sbs(g19
g36
tp3666
g1
(g25
g3
NtRp3667
(dp3668
g28
F0.5
sg29
I21467
sg30
g31
((dp3669
Vvb
p3670
I46
sVcc
p3671
I759
sVjjs
p3672
I11
sVjjr
p3673
I13
sVcd
p3674
I201
sg1894
I380
sVvbn
p3675
I106
sVex
p3676
I189
sVin
p3677
I706
sVnns
p3678
I3603
sVnnp
p3679
I2452
sVnnps
p3680
I133
sVwrb
p3681
I16
sVnn
p3682
I4526
sV)
I51
sV(
I7
sV,
I1705
sV.
I4
sVto
p3683
I34
sVrb
p3684
I971
sV:
I107
sg1983
I151
sVfw
p3685
I1
sVpos
p3686
I17
sVjj
p3687
I336
sVwp
p3688
I386
sVdt
p3689
I314
sVmd
p3690
I7
sVprp$
p3691
I3
sVvbg
p3692
I36
sVvbd
p3693
I49
sVrbs
p3694
I2
sVrbr
p3695
I7
sVvbp
p3696
I33
sVwdt
p3697
I798
sVvbz
p3698
I70
sNI186
sVprp
p3699
I3051
stRp3700
sg34
I45
sg35
F21489.5
sbs(g15
g1819
tp3701
g1
(g25
g3
NtRp3702
(dp3703
g28
F0.5
sg29
I291
sg30
g31
((dp3704
Vto
p3705
I5
sVvbg
p3706
I1
sVjj
p3707
I1
sVrb
p3708
I9
sVin
p3709
I250
sVcc
p3710
I24
sVdt
p3711
I1
stRp3712
sg34
I44
sg35
F313
sbs(g15
g117
tp3713
g1
(g25
g3
NtRp3714
(dp3715
g28
F0.5
sg29
I291
sg30
g31
((dp3716
VI-NP+rb
p3717
I4
sVB-NP+cc
p3718
I2
sVI-NP+cc
p3719
I14
sVO+jj
p3720
I1
sVO+vbg
p3721
I1
sVB-PP+cc
p3722
I1
sVB-VP+in
p3723
I6
sVB-VP+cc
p3724
I5
sVO+to
p3725
I1
sVO+in
p3726
I97
sVB-NP+in
p3727
I31
sVI-VP+in
p3728
I8
sVB-VP+to
p3729
I1
sVI-VP+to
p3730
I1
sVB-PP+in
p3731
I13
sVO+rb
p3732
I1
sVI-VP+dt
p3733
I1
sVI-NP+in
p3734
I76
sVNone+rb
p3735
I1
sVNone+in
p3736
I17
sVI-PP+in
p3737
I2
sVB-NP+to
p3738
I1
sVO+cc
p3739
I2
sVNone+to
p3740
I1
sVB-PP+rb
p3741
I3
stRp3742
sg34
I322
sg35
F452
sbs(g17
g366
tp3743
g1
(g25
g3
NtRp3744
(dp3745
g28
F0.5
sg29
I12003
sg30
g31
((dp3746
Vvb+cc
p3747
I39
sVnn+vbg
p3748
I1
sVnn+vbd
p3749
I1
sV,+vbz
p3750
I1
sVnn+to
p3751
I11
sVvbz+nn
p3752
I6
sVto+to
p3753
I1
sVvbn+nn
p3754
I7
sVvb+''
p3755
I1
sVvbd+jj
p3756
I9
sV,+vbn
p3757
I1
sVmd+in
p3758
I2
sVjj+cc
p3759
I1
sVnn+vbp
p3760
I2
sVcc+``
p3761
I1
sVvbg+vbn
p3762
I83
sVvbg+to
p3763
I158
sVto+nnp
p3764
I1
sVrb+``
p3765
I2
sVvbp+nns
p3766
I2
sVvb+vbg
p3767
I82
sVnn+vbn
p3768
I17
sVmd+vbd
p3769
I5
sVjjr+vb
p3770
I6
sVvbp+jj
p3771
I4
sVto+nn
p3772
I1
sVvbp+vbg
p3773
I249
sVvbp+vbd
p3774
I16
sVvbd+cc
p3775
I8
sVjjs+vbg
p3776
I1
sVcc+vbz
p3777
I6
sVvbp+vbn
p3778
I415
sVrb+in
p3779
I3
sVvbd+rb
p3780
I221
sVjjs+vbz
p3781
I1
sV``+vbp
p3782
I2
sVrb+''
p3783
I1
sVvbg+vbd
p3784
I1
sV(+cc
p3785
I1
sVvbz+``
p3786
I1
sVvbp+rb
p3787
I266
sVvbd+jjr
p3788
I1
sVin+to
p3789
I1
sVvbp+rbr
p3790
I1
sVvbp+rbs
p3791
I2
sVmd+vb
p3792
I1698
sV``+vbn
p3793
I4
sVrb+jj
p3794
I18
sVmd+vbn
p3795
I1
sVto+rb
p3796
I27
sV``+vb
p3797
I7
sV,+vbd
p3798
I2
sVrbr+rb
p3799
I3
sVjj+jj
p3800
I1
sVcc+vbn
p3801
I18
sVcc+vbd
p3802
I9
sVcc+vbg
p3803
I12
sVvb+jj
p3804
I5
sVvbd+rbs
p3805
I1
sVrbr+jj
p3806
I1
sVcc+nn
p3807
I8
sVdt+vb
p3808
I3
sVmd+``
p3809
I4
sVvbg+jj
p3810
I2
sVcc+vbp
p3811
I2
sVvb+rb
p3812
I15
sVvbd+vbg
p3813
I171
sVvbd+vbd
p3814
I3
sV,+nn
p3815
I1
sVrb+jjr
p3816
I3
sVvbd+vbn
p3817
I580
sVvbd+to
p3818
I234
sVvbz+rbs
p3819
I2
sVvbp+dt
p3820
I1
sVvbz+vb
p3821
I6
sVcc+vb
p3822
I43
sVmd+rb
p3823
I368
sVrbs+rb
p3824
I2
sVvbp+to
p3825
I136
sVto+dt
p3826
I2
sVvb+,
p3827
I6
sVvbz+vbp
p3828
I3
sVvbz+vbn
p3829
I649
sVvbz+rb
p3830
I259
sVrb+cc
p3831
I2
sVvbz+vbd
p3832
I15
sVin+vb
p3833
I1
sVvbz+vbg
p3834
I221
sVmd+to
p3835
I9
sVdt+nn
p3836
I1
sVcc+nns
p3837
I2
sVvbz+jj
p3838
I4
sV''+md
p3839
I1
sVvbz+nnp
p3840
I1
sVjjr+in
p3841
I4
sVvbn+rb
p3842
I15
sVrb+to
p3843
I10
sVnn+in
p3844
I3
sVvbz+cc
p3845
I7
sVrbs+vbn
p3846
I7
sVvbg+rb
p3847
I5
sVin+vbz
p3848
I2
sVvb+to
p3849
I159
sVdt+cc
p3850
I2
sVjj+to
p3851
I4
sVvbp+nn
p3852
I4
sVmd+cc
p3853
I1
sVvbn+,
p3854
I1
sVvb+vbd
p3855
I2
sVvbd+vb
p3856
I16
sVvbg+cc
p3857
I12
sVin+jjs
p3858
I2
sVvbz+to
p3859
I144
sVnn+nn
p3860
I1
sVto+jj
p3861
I1
sVrb+rb
p3862
I72
sVvbn+cc
p3863
I18
sVto+vbg
p3864
I1
sVnns+to
p3865
I12
sVvbn+to
p3866
I227
sVvb+vbn
p3867
I488
sVvbp+vb
p3868
I7
sVvbz+dt
p3869
I1
sVrbr+in
p3870
I3
sVcc+md
p3871
I1
sVrb+md
p3872
I2
sVvbg+rbr
p3873
I1
sVdt+to
p3874
I1
sVin+vbg
p3875
I4
sVvb+vb
p3876
I36
sVnn+cc
p3877
I5
sVto+vb
p3878
I2877
sVvbz+rbr
p3879
I2
sVrb+nn
p3880
I6
sV,+vb
p3881
I3
sVmd+rbr
p3882
I1
sVrb+vbz
p3883
I21
sVjj+vbg
p3884
I1
sVnn+rb
p3885
I2
sVvbp+cc
p3886
I4
sVdt+vbn
p3887
I1
sVto+in
p3888
I1
sVvbp+,
p3889
I1
sV,+rb
p3890
I1
sVin+vbn
p3891
I7
sVrb+vb
p3892
I681
sVdt+vbd
p3893
I2
sVcc+rb
p3894
I2
sV``+jj
p3895
I2
sV,+to
p3896
I2
sVdt+vbg
p3897
I1
sVjj+nn
p3898
I5
sVin+jj
p3899
I1
sVvbn+``
p3900
I1
sVcc+jj
p3901
I1
sVvbg+nn
p3902
I2
sVpos+vbn
p3903
I1
sVvbd+``
p3904
I2
sV''+cc
p3905
I1
sVmd+jjr
p3906
I2
sVvbn+vb
p3907
I3
sVvbg+vb
p3908
I1
sVto+``
p3909
I5
sVmd+dt
p3910
I3
sVvbd+nn
p3911
I14
sVrb+,
p3912
I1
sV``+nn
p3913
I6
sVvbn+(
p3914
I1
sVvbz+in
p3915
I2
sVvbd+in
p3916
I1
sVvbp+in
p3917
I1
sVvb+nn
p3918
I15
sVnns+cc
p3919
I1
sVrb+vbp
p3920
I15
sV,+cc
p3921
I2
sVto+jjr
p3922
I5
sVrb+vbg
p3923
I151
sVnnp+to
p3924
I1
sVrb+vbd
p3925
I51
sVvbn+vbd
p3926
I1
sVvbn+vbg
p3927
I60
sVrb+vbn
p3928
I392
sV``+vbd
p3929
I2
sVjj+vbd
p3930
I3
sVvbn+vbn
p3931
I142
stRp3932
sg34
I1131
sg35
F12568.5
sbs(g19
g1819
tp3933
g1
(g25
g3
NtRp3934
(dp3935
g28
F0.5
sg29
I21467
sg30
g31
((dp3936
Vvb
p3937
I434
sVcc
p3938
I1
sg1518
I7
sVjjr
p3939
I2
sVsym
p3940
I2
sV,
I4
sVvbn
p3941
I1094
sVprp
p3942
I3
sVjj
p3943
I47
sVin
p3944
I3
sVdt
p3945
I4
sVcd
p3946
I2
sVnns
p3947
I142
sVnnp
p3948
I18
sVmd
p3949
I2121
sVvbg
p3950
I1570
sVnn
p3951
I257
sVvbd
p3952
I6527
sVrbs
p3953
I4
sVrbr
p3954
I2
sVto
p3955
I1822
sVvbp
p3956
I2749
sVpos
p3957
I5
sVrb
p3958
I178
sVvbz
p3959
I4469
stRp3960
sg34
I44
sg35
F21489
sbs(g19
g74
tp3961
g1
(g25
g3
NtRp3962
(dp3963
g28
F0.5
sg29
I21467
sg30
g31
((dp3964
Vvb
p3965
I286
sVcc
p3966
I579
sVjjs
p3967
I52
sVpos
p3968
I247
sVcd
p3969
I467
sV''
p3970
I166
sVvbn
p3971
I230
sVprp
p3972
I241
sVin
p3973
I1547
sVwp$
p3974
I17
sVnns
p3975
I1268
sVnnp
p3976
I2681
sVnnps
p3977
I40
sVwrb
p3978
I184
sV$
I10
sVnn
p3979
I3190
sV)
I24
sV(
I20
sV,
I1908
sV.
I7
sVto
p3980
I46
sVrb
p3981
I333
sV:
I113
sV``
p3982
I453
sVfw
p3983
I4
sVjjr
p3984
I56
sVjj
p3985
I1746
sVwp
p3986
I88
sVdt
p3987
I2457
sVmd
p3988
I35
sVprp$
p3989
I236
sVvbg
p3990
I173
sVvbd
p3991
I523
sVrbs
p3992
I13
sVrbr
p3993
I20
sVvbp
p3994
I204
sVwdt
p3995
I82
sVuh
p3996
I1
sVvbz
p3997
I231
sNI1484
sVex
p3998
I5
stRp3999
sg34
I45
sg35
F21489.5
sbs(VO
g366
tp4000
g1
(g25
g3
NtRp4001
(dp4002
g28
F0.5
sg29
I38297
sg30
g31
((dp4003
VNone+jjs
p4004
I3
sVdt+,
p4005
I42
sVdt+.
p4006
I32
sVdt+)
p4007
I1
sVvbg+vbp
p4008
I1
sVprp+nn
p4009
I2
sVnn+to
p4010
I22
sVto+wrb
p4011
I3
sVdt+#
p4012
I3
sVvbn+nn
p4013
I1
sV''+in
p4014
I17
sVprp+vb
p4015
I1
sVcd+rbs
p4016
I1
sVdt+:
p4017
I8
sVvbg+vbn
p4018
I2
sVin+wrb
p4019
I37
sVdt+(
p4020
I3
sVprp$+,
p4021
I3
sVprp$+.
p4022
I2
sVcd+rb
p4023
I12
sVvbg+.
p4024
I47
sVprp$+$
p4025
I1
sVjjr+nn
p4026
I2
sV''+''
p4027
I11
sV(+nnp
p4028
I11
sVdt+$
p4029
I2
sVcd+jjr
p4030
I6
sVvbd+cd
p4031
I1
sVvbd+cc
p4032
I14
sVnns+in
p4033
I181
sV,+dt
p4034
I23
sVjj+nns
p4035
I1
sVvbn+wrb
p4036
I14
sV,+nnp
p4037
I3
sVuh+in
p4038
I1
sV,+nns
p4039
I1
sVrb+vbg
p4040
I6
sV``+vbz
p4041
I2
sVwdt+rb
p4042
I23
sV''+.
p4043
I1
sVvbd+jjr
p4044
I28
sVvbd+jjs
p4045
I1
sVcc+)
p4046
I1
sVcc+(
p4047
I1
sVcc+.
p4048
I2
sVcc+,
p4049
I33
sVdt+uh
p4050
I1
sV``+vbn
p4051
I4
sVpos+cd
p4052
I20
sVjjs+rb
p4053
I7
sVpos+cc
p4054
I8
sVto+rb
p4055
I1
sVwp+rb
p4056
I23
sVvb+ex
p4057
I2
sV,+vb
p4058
I2
sVnnp+''
p4059
I29
sVwrb+vbp
p4060
I3
sV,+vbg
p4061
I1
sV:+vbz
p4062
I1
sVdt+in
p4063
I4
sVvb+jj
p4064
I175
sVjjr+wrb
p4065
I2
sVnnp+``
p4066
I17
sVrbr+jj
p4067
I66
sVNone+cd
p4068
I7
sVNone+cc
p4069
I498
sV''+``
p4070
I11
sVvbd+vbn
p4071
I23
sVcc+vbd
p4072
I2
sVpos+$
p4073
I10
sV``+in
p4074
I46
sVwp+in
p4075
I2
sVNone+wrb
p4076
I57
sVvbg+jjr
p4077
I9
sVNone+dt
p4078
I10
sVwdt+in
p4079
I1
sV``+nn
p4080
I2
sVwp+``
p4081
I1
sV``+jjr
p4082
I2
sVdt+nn
p4083
I11
sVfw+''
p4084
I2
sVNone+''
p4085
I4
sVvbn+rp
p4086
I4
sVvbn+rbr
p4087
I6
sVvbn+rbs
p4088
I1
sVfw+cc
p4089
I1
sVvbz+nnp
p4090
I2
sVvb+wrb
p4091
I24
sVjjr+in
p4092
I38
sVvbn+rb
p4093
I163
sVwdt+dt
p4094
I1
sVNone+nnp
p4095
I16
sVnnps+rb
p4096
I2
sVprp+jj
p4097
I25
sVnn+.
p4098
I3186
sV,+``
p4099
I140
sV,+jjr
p4100
I2
sVprp+cc
p4101
I23
sVnns+jj
p4102
I157
sVjjr+rb
p4103
I1
sVvbn+$
p4104
I1
sVprp+:
p4105
I8
sVvbn+.
p4106
I213
sVnnp+rb
p4107
I150
sVvbn+,
p4108
I137
sVcd+rp
p4109
I1
sVvbg+cc
p4110
I7
sVvbn+)
p4111
I5
sVprp+.
p4112
I129
sVprp+,
p4113
I71
sVvbg+''
p4114
I3
sVprp+)
p4115
I4
sVvbn+:
p4116
I19
sVprp+(
p4117
I2
sVnns+to
p4118
I4
sVNone+jj
p4119
I23
sVprp+dt
p4120
I4
sVcc+md
p4121
I7
sVdt+vbz
p4122
I2
sVvb+.
p4123
I157
sVrb+nn
p4124
I6
sVvbp+:
p4125
I11
sVvb+in
p4126
I269
sVnnps+''
p4127
I1
sVvbp+,
p4128
I68
sVvbp+.
p4129
I70
sV,+rb
p4130
I389
sVvbp+(
p4131
I2
sV``+dt
p4132
I5
sVdt+vbd
p4133
I2
sV``+md
p4134
I1
sVvb+nn
p4135
I17
sVjj+nn
p4136
I14
sVdt+md
p4137
I1
sVvbn+``
p4138
I16
sV(+$
p4139
I7
sVrb+cc
p4140
I44
sV''+cc
p4141
I50
sVNone+rbr
p4142
I5
sVnns+rbs
p4143
I1
sVnns+rbr
p4144
I18
sVto+``
p4145
I9
sVrbr+.
p4146
I67
sVrbr+,
p4147
I21
sVprp$+rb
p4148
I1
sVjjr+``
p4149
I1
sVrbr+:
p4150
I3
sV)+wp
p4151
I1
sVnns+cc
p4152
I536
sVnns+''
p4153
I49
sVjjs+``
p4154
I1
sVin+''
p4155
I11
sVvbn+in
p4156
I207
sV``+wrb
p4157
I15
sV``+rb
p4158
I64
sVvbp+ex
p4159
I1
sVNone+)
p4160
I1
sVNone+(
p4161
I28
sVnns+nn
p4162
I13
sV#+cd
p4163
I7
sVNone+:
p4164
I15
sV(+``
p4165
I3
sV)+in
p4166
I3
sVnn+ex
p4167
I3
sVnnps+in
p4168
I2
sV:+dt
p4169
I5
sVvb+vbg
p4170
I1
sVvb+vbd
p4171
I1
sVin+dt
p4172
I45
sVvbz+jjr
p4173
I18
sVvbz+jjs
p4174
I2
sVvbp+jj
p4175
I143
sV,+uh
p4176
I1
sVvb+``
p4177
I26
sV(+rb
p4178
I6
sVcc+in
p4179
I86
sVnnp+nn
p4180
I1
sVNone+nn
p4181
I1
sV:+wrb
p4182
I9
sVvbd+:
p4183
I19
sVmd+vb
p4184
I1
sVvbd+(
p4185
I2
sVin+in
p4186
I75
sVin+cc
p4187
I28
sVin+cd
p4188
I5
sVvbd+.
p4189
I320
sVrb+jj
p4190
I370
sVjjr+cc
p4191
I12
sVin+jjr
p4192
I4
sVnns+wrb
p4193
I32
sV:+rb
p4194
I45
sVcd+vbn
p4195
I2
sVrbr+rb
p4196
I29
sVjj+md
p4197
I1
sVwrb+rb
p4198
I12
sVcd+vbd
p4199
I1
sVvb+wdt
p4200
I2
sVjj+jj
p4201
I16
sVwdt+nn
p4202
I1
sVvbg+:
p4203
I4
sVvbn+dt
p4204
I6
sVvbz+wrb
p4205
I32
sVvb+rp
p4206
I26
sVpos+wrb
p4207
I1
sVnnp+nns
p4208
I2
sVnnp+nnp
p4209
I16
sVvbg+,
p4210
I53
sVex+:
p4211
I1
sVvb+jjr
p4212
I22
sVvbg+)
p4213
I2
sVvbg+(
p4214
I1
sVvb+rb
p4215
I198
sVin+prp$
p4216
I3
sV``+vb
p4217
I3
sV,+nn
p4218
I5
sVfw+,
p4219
I1
sV``+rbr
p4220
I1
sVfw+.
p4221
I8
sVvbz+rbr
p4222
I7
sVvbz+rbs
p4223
I2
sVvbg+rp
p4224
I20
sVwrb+vbz
p4225
I2
sVfw+:
p4226
I1
sVcd+to
p4227
I8
sV$+nn
p4228
I1
sVvbg+rb
p4229
I103
sVdt+fw
p4230
I1
sVrbs+rb
p4231
I12
sV''+(
p4232
I12
sVjjr+md
p4233
I1
sVvb+,
p4234
I94
sV,+rbr
p4235
I3
sV,+rbs
p4236
I3
sVvb+(
p4237
I3
sV.+nnp
p4238
I1
sVNone+uh
p4239
I6
sV:+``
p4240
I56
sVin+vb
p4241
I1
sVvbg+wrb
p4242
I6
sVto+.
p4243
I2
sVto+,
p4244
I4
sVvb+:
p4245
I11
sVwdt+,
p4246
I3
sVvbp+jjr
p4247
I12
sVvbg+``
p4248
I14
sV)+:
p4249
I23
sVnns+rb
p4250
I376
sVwdt+:
p4251
I1
sVmd+``
p4252
I7
sVvbd+nn
p4253
I10
sV)+.
p4254
I35
sV)+,
p4255
I42
sVvbz+(
p4256
I1
sVvbz+.
p4257
I135
sVvbz+,
p4258
I128
sVnnp+jj
p4259
I9
sVprp+vbd
p4260
I3
sVNone+in
p4261
I209
sVvbz+:
p4262
I23
sVin+``
p4263
I119
sVrb+dt
p4264
I7
sVvb+jjs
p4265
I1
sVvbp+nn
p4266
I7
sVnnp+jjr
p4267
I3
sV``+cc
p4268
I26
sVnns+cd
p4269
I1
sVrb+)
p4270
I1
sVrb+(
p4271
I1
sVvbn+jj
p4272
I71
sVrb+,
p4273
I615
sVrb+.
p4274
I413
sVnn+)
p4275
I59
sVjj+dt
p4276
I3
sVnn+(
p4277
I54
sVnn+nn
p4278
I11
sVrb+:
p4279
I25
sVprp$+cc
p4280
I1
sVvb+dt
p4281
I10
sVpos+#
p4282
I3
sV:+.
p4283
I17
sVvbn+cc
p4284
I37
sVjj+)
p4285
I7
sVvbz+dt
p4286
I11
sVrbr+in
p4287
I4
sVnnp+cd
p4288
I1
sVrb+md
p4289
I2
sVvbg+rbs
p4290
I1
sVprp+rb
p4291
I198
sVnnp+cc
p4292
I385
sV,+md
p4293
I4
sVvb+vb
p4294
I1
sVcd+wrb
p4295
I6
sVcd+in
p4296
I28
sVjj+,
p4297
I307
sVvbd+prp$
p4298
I1
sVrbr+vb
p4299
I1
sVrb+vb
p4300
I1
sVnns+``
p4301
I31
sVuh+dt
p4302
I1
sVpos+rbr
p4303
I1
sVpos+rbs
p4304
I5
sVdt+rbs
p4305
I2
sVdt+rbr
p4306
I3
sV``+uh
p4307
I3
sVprp+``
p4308
I10
sVvbz+rp
p4309
I5
sV:+nn
p4310
I2
sVin+rb
p4311
I119
sV(+vbg
p4312
I1
sVvbz+rb
p4313
I322
sVvbp+``
p4314
I16
sVrbs+jj
p4315
I12
sV,+jj
p4316
I52
sVprp+in
p4317
I38
sVvb+nnp
p4318
I1
sVvbp+in
p4319
I91
sVjjs+,
p4320
I6
sVjjr+.
p4321
I42
sVjjr+,
p4322
I27
sV,+cc
p4323
I1036
sVjjr+)
p4324
I1
sVvbg+in
p4325
I133
sV,+wrb
p4326
I66
sVjjr+:
p4327
I3
sVprp+jjr
p4328
I5
sVvb+cc
p4329
I22
sV,+vbz
p4330
I3
sVvb+cd
p4331
I1
sVvbg+dt
p4332
I6
sVnn+md
p4333
I2
sVvbz+nn
p4334
I7
sV,+vbp
p4335
I6
sVvbd+jj
p4336
I173
sV,+vbn
p4337
I1
sVnnp+in
p4338
I45
sV,+vbd
p4339
I2
sV:+''
p4340
I3
sVprp$+cd
p4341
I1
sVcd+nns
p4342
I3
sVnn+jjr
p4343
I28
sVrb+``
p4344
I3
sVvbn+nns
p4345
I1
sVNone+md
p4346
I5
sVin+:
p4347
I9
sV.+''
p4348
I473
sVjj+``
p4349
I2
sVvbp+vbn
p4350
I13
sVrb+in
p4351
I210
sVin+(
p4352
I8
sVin+)
p4353
I1
sVnn+jj
p4354
I90
sVin+,
p4355
I102
sVin+.
p4356
I18
sV(+jj
p4357
I6
sVcc+rbs
p4358
I3
sVcc+rbr
p4359
I4
sVwrb+vb
p4360
I1
sVnnp+wrb
p4361
I17
sVnns+jjs
p4362
I1
sVnns+jjr
p4363
I11
sV(+cc
p4364
I6
sVvbz+``
p4365
I38
sVvbp+rb
p4366
I176
sVjj+in
p4367
I118
sVrbr+vbd
p4368
I1
sVvbd+wdt
p4369
I2
sVjj+cc
p4370
I91
sVrbr+vbn
p4371
I3
sVvbp+rp
p4372
I5
sVjj+rb
p4373
I56
sVvb+rbs
p4374
I1
sVvb+rbr
p4375
I12
sV,+in
p4376
I393
sVwrb+md
p4377
I5
sVmd+dt
p4378
I1
sVrp+in
p4379
I6
sVjj+rp
p4380
I3
sVex+cc
p4381
I4
sVnns+dt
p4382
I4
sVvbd+dt
p4383
I25
sVdt+jjr
p4384
I18
sVvbg+jj
p4385
I28
sV:+jj
p4386
I8
sV:+:
p4387
I1
sVvbg+rbr
p4388
I6
sVjjr+nnp
p4389
I2
sVvbp+dt
p4390
I16
sVvbd+wrb
p4391
I7
sVcc+vb
p4392
I1
sVin+nn
p4393
I20
sV)+cc
p4394
I11
sVnn+dt
p4395
I14
sVmd+rb
p4396
I10
sVrbr+cc
p4397
I5
sVprp+wrb
p4398
I4
sVnn+vbp
p4399
I1
sVnns+nnp
p4400
I1
sVmd+)
p4401
I1
sVmd+.
p4402
I4
sVvbn+''
p4403
I13
sVmd+,
p4404
I8
sVnn+rbs
p4405
I1
sVnn+rbr
p4406
I100
sVvbz+vbn
p4407
I14
sVin+ex
p4408
I2
sVcc+wrb
p4409
I21
sVvbz+vbg
p4410
I2
sVin+nnp
p4411
I4
sVcc+dt
p4412
I5
sVcc+nnp
p4413
I3
sVvbz+jj
p4414
I213
sVnnp+:
p4415
I132
sVnn+wrb
p4416
I60
sV(+in
p4417
I3
sVnn+in
p4418
I404
sVvbz+cc
p4419
I8
sVin+rbr
p4420
I3
sVin+rbs
p4421
I1
sV(+nn
p4422
I1
sV''+rb
p4423
I9
sV.+)
p4424
I46
sVcd+cd
p4425
I32
sV,+pos
p4426
I2
sVvbd+vb
p4427
I1
sV:+cc
p4428
I66
sVnns+)
p4429
I19
sVpos+jj
p4430
I6
sVnns+(
p4431
I53
sVrb+rb
p4432
I287
sVrb+pdt
p4433
I1
sVnnps+:
p4434
I7
sVto+cc
p4435
I1
sVvb+vbn
p4436
I5
sVnnps+,
p4437
I70
sVnnps+.
p4438
I45
sVcd+nn
p4439
I28
sVwrb+jj
p4440
I13
sVdt+``
p4441
I1
sVuh+.
p4442
I2
sVuh+,
p4443
I9
sVnnp+.
p4444
I1088
sVmd+rbr
p4445
I1
sVwp+)
p4446
I1
sVnn+rb
p4447
I447
sVvbp+cc
p4448
I7
sVwp+,
p4449
I1
sVto+in
p4450
I2
sVjjs+in
p4451
I1
sVprp+rbr
p4452
I4
sVprp+rbs
p4453
I1
sVcc+rb
p4454
I144
sVin+jj
p4455
I66
sVin+pdt
p4456
I2
sVvbg+nn
p4457
I7
sVdt+rb
p4458
I25
sVvbd+``
p4459
I48
sVvbg+vb
p4460
I2
sV.+rb
p4461
I3
sVnnp+rbr
p4462
I4
sVvbd+in
p4463
I357
sVjj+#
p4464
I1
sVjj+$
p4465
I1
sVpos+.
p4466
I4
sVjj+(
p4467
I7
sVpos+,
p4468
I7
sVjjs+:
p4469
I1
sVjj+.
p4470
I345
sVwrb+.
p4471
I2
sVwrb+,
p4472
I2
sVjjs+.
p4473
I3
sVnn+``
p4474
I52
sVjj+:
p4475
I34
sVnn+vbg
p4476
I1
sVnn+vbd
p4477
I4
sVjj+''
p4478
I28
sVnn+vbn
p4479
I7
sVNone+vbz
p4480
I4
sVvb+''
p4481
I18
sVjj+cd
p4482
I2
sVnnps+jjr
p4483
I1
sVNone+ex
p4484
I1
sVvbn+jjr
p4485
I6
sVcc+``
p4486
I30
sVrb+nnp
p4487
I1
sVnn+vbz
p4488
I3
sV)+rb
p4489
I2
sVjj+wdt
p4490
I2
sVrb+wrb
p4491
I20
sVcd+''
p4492
I3
sVpos+nn
p4493
I3
sVjjs+wrb
p4494
I1
sVcd+cc
p4495
I86
sVnn+''
p4496
I123
sVnns+vb
p4497
I3
sVvbd+rp
p4498
I10
sVcd+jj
p4499
I10
sVpos+jjr
p4500
I1
sVpos+jjs
p4501
I3
sVwp+vbz
p4502
I2
sVvbd+rb
p4503
I255
sVdt+dt
p4504
I1
sVNone+vbn
p4505
I1
sV''+jj
p4506
I1
sVvbp+''
p4507
I2
sVrb+''
p4508
I4
sVvbp+rbr
p4509
I8
sVvbp+rbs
p4510
I1
sV,+''
p4511
I617
sV:+rbs
p4512
I1
sVex+rb
p4513
I3
sVNone+nns
p4514
I1
sV''+wrb
p4515
I7
sVcc+uh
p4516
I1
sV:+in
p4517
I15
sVcc+vbn
p4518
I4
sV''+:
p4519
I12
sVcc+vbg
p4520
I1
sVvbd+rbr
p4521
I5
sVnns+vbn
p4522
I12
sVcc+vbz
p4523
I3
sVcc+nn
p4524
I7
sV''+)
p4525
I1
sVjj+nnp
p4526
I3
sVin+fw
p4527
I1
sVcc+vbp
p4528
I1
sV''+,
p4529
I2
sVvbg+ex
p4530
I2
sVvbz+md
p4531
I1
sVjj+rbr
p4532
I1
sVjj+wrb
p4533
I8
sVpos+nnp
p4534
I1
sVpos+nns
p4535
I1
sVto+nn
p4536
I2
sVvbd+)
p4537
I1
sV,+(
p4538
I1
sVvbd+,
p4539
I175
sVcd+dt
p4540
I1
sV,+:
p4541
I1
sVNone+sym
p4542
I4
sV$+cd
p4543
I21
sVvbp+pdt
p4544
I2
sVjjr+cd
p4545
I1
sVpos+in
p4546
I1
sVrbs+.
p4547
I2
sVrb+to
p4548
I1
sVcd+:
p4549
I51
sVrb+jjr
p4550
I55
sVrbs+,
p4551
I1
sVnn+:
p4552
I344
sVNone+rb
p4553
I476
sVto+''
p4554
I1
sVjjs+cc
p4555
I1
sVpos+rb
p4556
I13
sVdt+cc
p4557
I3
sVjj+to
p4558
I5
sVnn+,
p4559
I3298
sVto+cd
p4560
I3
sVdt+cd
p4561
I3
sVjjs+jj
p4562
I3
sVin+jjs
p4563
I36
sVto+jj
p4564
I2
sVvbd+nnp
p4565
I1
sVnns+ex
p4566
I6
sVvbn+to
p4567
I1
sVrbs+vb
p4568
I1
sVprp+md
p4569
I3
sV,+cd
p4570
I1
sVrb+rbs
p4571
I1
sVrb+rbr
p4572
I24
sVin+vbp
p4573
I1
sVnn+cd
p4574
I3
sVnn+cc
p4575
I713
sVvbp+wrb
p4576
I9
sVto+vb
p4577
I5
sV.+(
p4578
I10
sVnns+.
p4579
I1802
sVnns+,
p4580
I1559
sV.+,
p4581
I3
sV.+.
p4582
I1
sVnnps+cc
p4583
I16
sVnnp+(
p4584
I61
sVnnp+)
p4585
I59
sVnnp+,
p4586
I2534
sVin+vbd
p4587
I2
sVjj+vbn
p4588
I1
sVin+vbn
p4589
I3
sVnns+:
p4590
I265
sVvbz+vb
p4591
I1
sVmd+in
p4592
I1
sVNone+vbp
p4593
I3
sVnn+nns
p4594
I3
sVcd+prp
p4595
I1
sVnn+nnp
p4596
I2
sVnns+vbp
p4597
I6
sV(+wrb
p4598
I1
sVcc+jj
p4599
I37
sVNone+vbd
p4600
I5
sVnnp+dt
p4601
I4
sVrb+fw
p4602
I1
sVcc+jjr
p4603
I21
sVjj+jjs
p4604
I1
sVNone+``
p4605
I648
sVdt+nnp
p4606
I11
sVcd+(
p4607
I14
sVcd+)
p4608
I64
sVvbd+''
p4609
I2
sVcd+,
p4610
I773
sVex+,
p4611
I7
sVcd+.
p4612
I619
sVpos+``
p4613
I3
sVwp+md
p4614
I4
sVrb+vbn
p4615
I48
sVvbz+in
p4616
I183
sVdt+jj
p4617
I14
sVrb+vbp
p4618
I2
sV''+dt
p4619
I3
sVcd+``
p4620
I7
sVrb+vbz
p4621
I1
sV``+jj
p4622
I32
sV``+nnp
p4623
I1
sVrb+vbd
p4624
I4
sVvbn+vbg
p4625
I2
sVwp+dt
p4626
I1
sVnns+prp
p4627
I3
sVvbn+vbn
p4628
I2
stRp4629
sg34
I1131
sg35
F38862.5
sbs(g17
g36
tp4630
g1
(g25
g3
NtRp4631
(dp4632
g28
F0.5
sg29
I12003
sg30
g31
((dp4633
Vvb
p4634
I848
sVmd
p4635
I2094
sVcc
p4636
I105
sVjjs
p4637
I2
sVjjr
p4638
I10
sV,
I13
sg2013
I2
sVvbn
p4639
I476
sVjj
p4640
I15
sVin
p4641
I18
sVdt
p4642
I11
sVnns
p4643
I13
sVnnp
p4644
I1
sg2020
I23
sVvbg
p4645
I265
sVnn
p4646
I43
sVvbd
p4647
I1261
sV(
I1
sVrbs
p4648
I9
sVrbr
p4649
I7
sVto
p4650
I2922
sVvbp
p4651
I1109
sVpos
p4652
I1
sVrb
p4653
I1431
sVvbz
p4654
I1323
stRp4655
sg34
I45
sg35
F12025.5
sbs(VO
g862
tp4656
g1
(g25
g3
NtRp4657
(dp4658
g28
F0.5
sg29
I38297
sg30
g31
((dp4659
VNone+jjs
p4660
I3
sVI-VP+wdt
p4661
I2
sVO+:
p4662
I101
sVNone+)
p4663
I1
sVNone+(
p4664
I28
sVI-NP+wrb
p4665
I83
sVI-NP+jjs
p4666
I1
sVI-NP+jjr
p4667
I34
sVO+wdt
p4668
I2
sVO+)
p4669
I77
sVB-PP+dt
p4670
I22
sVB-VP+in
p4671
I826
sVNone+:
p4672
I15
sVI-NP+,
p4673
I6450
sVB-NP+vb
p4674
I3
sVB-PP+vbn
p4675
I2
sVB-VP+rbr
p4676
I24
sVB-VP+rbs
p4677
I3
sVO+rbr
p4678
I39
sVI-VP+dt
p4679
I19
sVI-PP+jj
p4680
I1
sVNone+md
p4681
I5
sVO+``
p4682
I282
sVB-VP+``
p4683
I122
sVO+nns
p4684
I9
sVB-PP+nnp
p4685
I4
sVO+nnp
p4686
I53
sVI-PP+,
p4687
I2
sVI-VP+)
p4688
I5
sVI-VP+(
p4689
I2
sVI-VP+.
p4690
I323
sVI-NP+''
p4691
I167
sVI-VP+,
p4692
I212
sVI-VP+:
p4693
I25
sVI-NP+cc
p4694
I1274
sVO+(
p4695
I41
sVNone+cd
p4696
I7
sVNone+nn
p4697
I1
sVI-VP+ex
p4698
I4
sVNone+cc
p4699
I498
sVI-VP+rp
p4700
I29
sVI-NP+rbs
p4701
I3
sVI-NP+rbr
p4702
I110
sVO+cd
p4703
I75
sVO+cc
p4704
I1378
sVB-PP+vb
p4705
I1
sVI-VP+rb
p4706
I378
sVO+''
p4707
I1147
sVNone+vbd
p4708
I5
sVNone+ex
p4709
I1
sVI-PP+rbr
p4710
I1
sVI-PP+``
p4711
I5
sVI-VP+jjr
p4712
I30
sVO+vbz
p4713
I14
sVB-VP+vbp
p4714
I1
sVB-VP+ex
p4715
I1
sVB-VP+cc
p4716
I32
sVI-NP+dt
p4717
I18
sVB-VP+vbn
p4718
I51
sVI-NP+vbz
p4719
I3
sVB-NP+rb
p4720
I491
sVB-VP+vbd
p4721
I1
sVB-VP+vbg
p4722
I2
sVB-NP+in
p4723
I206
sVI-VP+nn
p4724
I21
sVO+wrb
p4725
I156
sVO+rb
p4726
I1159
sVB-NP+#
p4727
I3
sVI-NP+)
p4728
I127
sVI-NP+(
p4729
I161
sVI-NP+.
p4730
I5511
sVB-PP+pdt
p4731
I1
sVB-VP+jj
p4732
I555
sVI-NP+vbp
p4733
I1
sVB-NP+nnp
p4734
I1
sVI-NP+:
p4735
I638
sVB-NP+nns
p4736
I2
sVB-VP+pdt
p4737
I2
sVI-NP+rb
p4738
I773
sVB-PP+''
p4739
I3
sVB-NP+$
p4740
I10
sVB-PP+wrb
p4741
I34
sVO+vb
p4742
I14
sVB-VP+rb
p4743
I847
sVI-NP+vbn
p4744
I14
sVNone+wrb
p4745
I57
sVO+in
p4746
I992
sVB-VP+rp
p4747
I45
sVNone+dt
p4748
I10
sVI-NP+ex
p4749
I4
sVI-NP+jj
p4750
I195
sVI-NP+to
p4751
I29
sVB-PP+(
p4752
I3
sVB-PP+,
p4753
I24
sVI-PP+rb
p4754
I2
sVB-VP+''
p4755
I6
sVNone+uh
p4756
I6
sVNone+sym
p4757
I4
sVB-PP+:
p4758
I5
sVB-NP+``
p4759
I34
sVI-NP+prp
p4760
I2
sVI-VP+``
p4761
I43
sVB-NP+cc
p4762
I510
sVNone+''
p4763
I4
sVB-NP+cd
p4764
I22
sVB-NP+to
p4765
I1
sVO+dt
p4766
I74
sVB-VP+wrb
p4767
I59
sVB-PP+``
p4768
I91
sVNone+nns
p4769
I1
sVO+uh
p4770
I6
sVNone+nnp
p4771
I16
sVI-NP+md
p4772
I5
sVI-VP+jjs
p4773
I1
sVB-PP+prp$
p4774
I3
sVNone+rb
p4775
I476
sVNone+in
p4776
I209
sVB-NP+md
p4777
I8
sVI-NP+vbg
p4778
I1
sVO+pdt
p4779
I2
sVB-NP+''
p4780
I35
sVB-VP+dt
p4781
I56
sVB-VP+:
p4782
I53
sVB-NP+jjs
p4783
I3
sVI-VP+rbs
p4784
I3
sVI-VP+rbr
p4785
I20
sVB-PP+cc
p4786
I5
sVB-PP+cd
p4787
I1
sVI-NP+vbd
p4788
I4
sVB-VP+(
p4789
I4
sVB-VP+)
p4790
I1
sVB-VP+.
p4791
I583
sVB-VP+,
p4792
I392
sVB-NP+jj
p4793
I103
sVO+to
p4794
I11
sVB-VP+cd
p4795
I2
sVI-VP+wrb
p4796
I34
sVI-VP+in
p4797
I440
sVB-NP+:
p4798
I195
sVB-PP+jj
p4799
I43
sVO+pos
p4800
I2
sVNone+jj
p4801
I23
sVO+jjs
p4802
I36
sVO+jjr
p4803
I99
sVI-VP+vb
p4804
I2
sVI-VP+vbg
p4805
I3
sVB-PP+rb
p4806
I36
sVB-NP+(
p4807
I25
sVB-VP+prp$
p4808
I1
sVB-NP+.
p4809
I1475
sVI-VP+''
p4810
I34
sVI-VP+vbn
p4811
I8
sVB-PP+rbr
p4812
I1
sVO+vbn
p4813
I62
sVB-VP+jjr
p4814
I70
sVB-VP+jjs
p4815
I3
sVO+fw
p4816
I3
sVO+jj
p4817
I652
sVO+vbg
p4818
I9
sVB-NP+jjr
p4819
I16
sVO+vbd
p4820
I13
sVB-PP+nn
p4821
I3
sVB-PP+jjr
p4822
I3
sVB-PP+.
p4823
I17
sVNone+vbz
p4824
I4
sVI-PP+dt
p4825
I1
sVO+vbp
p4826
I13
sVB-NP+prp
p4827
I2
sVO+wp
p4828
I1
sVB-PP+in
p4829
I31
sVNone+vbp
p4830
I3
sVB-NP+nn
p4831
I18
sVB-NP+ex
p4832
I5
sVI-NP+in
p4833
I470
sVO+rbs
p4834
I11
sVB-PP+jjs
p4835
I1
sVO+#
p4836
I4
sVB-VP+wdt
p4837
I2
sVO+$
p4838
I12
sVI-VP+jj
p4839
I249
sVNone+vbn
p4840
I1
sVI-PP+wrb
p4841
I1
sVB-NP+wrb
p4842
I35
sVO+,
p4843
I1132
sVO+nn
p4844
I99
sVO+.
p4845
I904
sVNone+rbr
p4846
I5
sVI-PP+''
p4847
I1
sVNone+``
p4848
I648
sVI-VP+cd
p4849
I1
sVB-NP+rbr
p4850
I16
sVB-NP+rbs
p4851
I6
sVI-VP+nnp
p4852
I1
sVI-VP+cc
p4853
I49
sVI-NP+``
p4854
I85
sVO+ex
p4855
I2
sVO+md
p4856
I19
sVB-VP+nn
p4857
I29
sVB-NP+vbd
p4858
I4
sVB-NP+dt
p4859
I12
sVI-NP+cd
p4860
I2
sVI-NP+nn
p4861
I11
sVB-NP+vbn
p4862
I7
sVB-NP+)
p4863
I64
sVB-VP+nnp
p4864
I4
sVI-PP+vb
p4865
I1
sVB-NP+vbp
p4866
I6
sVI-NP+nnp
p4867
I1
sVI-NP+nns
p4868
I1
sVB-VP+vb
p4869
I4
sVI-NP+vb
p4870
I1
sVB-NP+vbz
p4871
I2
sVB-NP+,
p4872
I1994
stRp4873
sg34
I305
sg35
F38449.5
sbs(g15
g1925
tp4874
g1
(g25
g3
NtRp4875
(dp4876
g28
F0.5
sg29
I291
sg30
g31
((dp4877
g3052
I2
sVB-PP
p4878
I17
sVI-VP
p4879
I10
sVO
I103
sVI-NP
p4880
I94
sVB-VP
p4881
I12
sVB-NP
p4882
I34
sNI19
stRp4883
sg34
I8
sg35
F295
sbs(g20
g23
tp4884
g1
(g25
g3
NtRp4885
(dp4886
g28
F0.5
sg29
I55081
sg30
g31
((dp4887
V#
I19
sV'
I10
sVz
I49
sVd
I3178
sV`
I40
sVc
I18
sVb
I762
sV$
I3202
sVg
I188
sV(
I2
sVj
I4304
sV,
I24
sVn
I5765
sVp
I12653
sVs
I5420
sVr
I443
sVt
I18800
sVw
I7
sVx
I189
sV:
I8
stRp4888
sg34
I25
sg35
F55093.5
sbs(g17
g1505
tp4889
g1
(g25
g3
NtRp4890
(dp4891
g28
F0.5
sg29
I12003
sg30
g31
((dp4892
Vbd
p4893
I113
sVvb
p4894
I5388
sVbg
p4895
I955
sVjj
p4896
I49
sVcc
p4897
I104
sVbn
p4898
I2806
sVbs
p4899
I5
sg2020
I16
sVjr
p4900
I11
sVjs
p4901
I2
sg2013
I2
sVbp
p4902
I24
sVbr
p4903
I5
sVin
p4904
I20
sVdt
p4905
I7
sVbz
p4906
I31
sVmd
p4907
I4
sVnn
p4908
I77
sV(
I1
sV,
I9
sVto
p4909
I1110
sVrb
p4910
I1258
sVnp
p4911
I2
sVns
p4912
I4
stRp4913
sg34
I39
sg35
F12022.5
sbs(g17
g23
tp4914
g1
(g25
g3
NtRp4915
(dp4916
g28
F0.5
sg29
I12003
sg30
g31
((dp4917
V'
I2
sV`
I16
sVc
I104
sVb
I6646
sVd
I117
sVg
I955
sV(
I1
sVj
I49
sV,
I9
sVo
I1110
sVn
I2903
sVp
I26
sVs
I11
sVr
I16
sVt
I7
sVz
I31
stRp4918
sg34
I25
sg35
F12015.5
sbs(g18
g862
tp4919
g1
(g25
g3
NtRp4920
(dp4921
g28
F0.5
sg29
I63307
sg30
g31
((dp4922
VB-NP+cc
p4923
I483
sVB-NP+cd
p4924
I2781
sVB-NP+to
p4925
I46
sVI-NP+jjs
p4926
I23
sVI-NP+in
p4927
I64
sVI-NP+fw
p4928
I16
sVB-NP+(
p4929
I6
sVI-NP+wp
p4930
I1
sVI-NP+pos
p4931
I10
sVB-NP+md
p4932
I1
sVI-NP+jj
p4933
I1596
sVI-NP+''
p4934
I83
sVB-NP+nn
p4935
I13979
sVI-NP+nnps
p4936
I160
sVI-NP+cd
p4937
I2269
sVB-NP+dt
p4938
I253
sVI-NP+cc
p4939
I926
sVB-NP+jj
p4940
I5175
sVI-NP+jjr
p4941
I57
sVB-NP+wp
p4942
I2
sVB-NP+wrb
p4943
I2
sVB-NP+pdt
p4944
I3
sVB-NP+fw
p4945
I12
sVB-NP+:
p4946
I1
sVB-NP+nnps
p4947
I183
sVI-NP+to
p4948
I44
sVI-NP+rbs
p4949
I9
sVI-NP+rbr
p4950
I8
sVB-NP+#
p4951
I7
sVB-NP+$
p4952
I283
sVI-NP+prp$
p4953
I5
sVB-NP+)
p4954
I2
sVB-NP+.
p4955
I5
sVB-NP+,
p4956
I138
sVB-NP+vb
p4957
I9
sVI-NP+``
p4958
I32
sVB-NP+jjr
p4959
I147
sVB-NP+jjs
p4960
I253
sVI-NP+dt
p4961
I46
sVB-NP+rb
p4962
I248
sVB-NP+in
p4963
I152
sVI-NP+#
p4964
I3
sVB-NP+prp
p4965
I7
sVI-NP+$
p4966
I136
sVI-NP+)
p4967
I4
sVI-NP+(
p4968
I1
sVI-NP+.
p4969
I9
sVI-NP+,
p4970
I374
sVB-NP+pos
p4971
I2
sVB-NP+nnp
p4972
I6661
sVI-NP+:
p4973
I4
sVB-NP+nns
p4974
I6020
sVI-NP+rb
p4975
I59
sVI-NP+vbz
p4976
I29
sVI-NP+vbp
p4977
I50
sVB-NP+rbr
p4978
I26
sVB-NP+rbs
p4979
I65
sVB-NP+uh
p4980
I3
sVI-NP+pdt
p4981
I3
sVI-NP+vbn
p4982
I102
sVI-NP+md
p4983
I4
sVI-NP+vbd
p4984
I27
sVI-NP+vbg
p4985
I91
sVB-NP+vbd
p4986
I22
sVB-NP+vbg
p4987
I245
sVI-NP+nn
p4988
I10477
sVB-NP+vbn
p4989
I351
sVB-NP+prp$
p4990
I14
sVB-NP+vbp
p4991
I10
sVI-NP+nnp
p4992
I4809
sVI-NP+nns
p4993
I3976
sVB-NP+``
p4994
I124
sVI-NP+vb
p4995
I30
sVB-NP+vbz
p4996
I47
sVI-NP+prp
p4997
I2
stRp4998
sg34
I305
sg35
F63459.5
sbs(g17
g862
tp4999
g1
(g25
g3
NtRp5000
(dp5001
g28
F0.5
sg29
I12003
sg30
g31
((dp5002
VI-VP+``
p5003
I6
sVB-VP+jjr
p5004
I8
sVB-VP+jjs
p5005
I2
sVB-VP+vbz
p5006
I20
sVI-VP+jjr
p5007
I3
sVB-VP+vbp
p5008
I17
sVB-VP+md
p5009
I2
sVB-VP+vbn
p5010
I1762
sVB-VP+in
p5011
I10
sVB-VP+vbd
p5012
I92
sVB-VP+vbg
p5013
I684
sVI-VP+nn
p5014
I47
sVB-VP+nnp
p5015
I2
sVB-VP+rbr
p5016
I4
sVB-VP+rbs
p5017
I5
sVI-VP+,
p5018
I7
sVB-VP+jj
p5019
I22
sVB-VP+``
p5020
I10
sVI-VP+jj
p5021
I27
sVB-VP+dt
p5022
I7
sVI-VP+(
p5023
I1
sVI-VP+rbr
p5024
I1
sVI-VP+cc
p5025
I64
sVB-VP+rb
p5026
I1146
sVI-VP+to
p5027
I462
sVI-VP+nns
p5028
I2
sVB-VP+,
p5029
I2
sVB-VP+nn
p5030
I30
sVI-VP+vbp
p5031
I7
sVI-VP+md
p5032
I2
sVI-VP+in
p5033
I10
sVI-VP+vbz
p5034
I11
sVB-VP+to
p5035
I648
sVB-VP+''
p5036
I2
sVB-VP+nns
p5037
I2
sVI-VP+vb
p5038
I1860
sVI-VP+vbd
p5039
I21
sVI-VP+vbg
p5040
I271
sVI-VP+rb
p5041
I112
sVB-VP+cc
p5042
I40
sVB-VP+vb
p5043
I3528
sVI-VP+vbn
p5044
I1044
stRp5045
sg34
I305
sg35
F12155.5
sbs(g16
g862
tp5046
g1
(g25
g3
NtRp5047
(dp5048
g28
F0.5
sg29
I21281
sg30
g31
((dp5049
VB-NP+cc
p5050
I17
sVI-NP+cc
p5051
I41
sVB-NP+to
p5052
I279
sVI-NP+jjr
p5053
I1
sVO+dt
p5054
I2
sVB-VP+in
p5055
I1773
sVB-VP+jj
p5056
I1
sVNone+rb
p5057
I10
sVNone+in
p5058
I929
sVI-NP+``
p5059
I1
sVNone+vb
p5060
I1
sVI-NP+vbg
p5061
I15
sVB-VP+dt
p5062
I1
sVO+vbd
p5063
I4
sVB-NP+nn
p5064
I12
sVI-NP+:
p5065
I1
sVB-PP+cc
p5066
I5
sVI-VP+to
p5067
I229
sVB-VP+,
p5068
I1
sVB-NP+jj
p5069
I16
sVO+to
p5070
I334
sVI-VP+in
p5071
I1486
sVB-NP+:
p5072
I1
sVI-VP+rp
p5073
I1
sVB-PP+rp
p5074
I1
sVI-NP+rbr
p5075
I2
sVB-VP+to
p5076
I302
sVO+cc
p5077
I7
sVI-PP+to
p5078
I4
sVI-VP+vbg
p5079
I5
sVI-VP+rb
p5080
I8
sVB-PP+rb
p5081
I1
sVI-NP+to
p5082
I756
sVO+''
p5083
I1
sVB-NP+,
p5084
I1
sVO+vbn
p5085
I60
sVO+jj
p5086
I39
sVO+vbg
p5087
I143
sVB-NP+jjr
p5088
I1
sVB-NP+jjs
p5089
I1
sVI-NP+dt
p5090
I1
sVB-NP+rb
p5091
I5
sVB-NP+in
p5092
I2805
sVO+vbp
p5093
I1
sVB-PP+in
p5094
I275
sVO+rb
p5095
I27
sVI-NP+in
p5096
I8990
sVI-NP+,
p5097
I13
sVNone+vbg
p5098
I37
sVO+rbr
p5099
I1
sVNone+to
p5100
I5
sVI-VP+jj
p5101
I4
sVNone+vbn
p5102
I4
sVO+nn
p5103
I2
sVI-NP+rb
p5104
I11
sVNone+``
p5105
I1
sVO+vb
p5106
I2
sVB-VP+rb
p5107
I10
sVI-NP+rp
p5108
I2
sVO+rp
p5109
I1
sVI-NP+vbn
p5110
I13
sVO+in
p5111
I2412
sVB-VP+rp
p5112
I4
sVNone+dt
p5113
I1
sVB-VP+nn
p5114
I1
sVI-NP+jj
p5115
I32
sVB-NP+vbg
p5116
I7
sVB-NP+vbn
p5117
I1
sVI-PP+in
p5118
I13
sVB-VP+vb
p5119
I2
sVI-NP+vb
p5120
I1
sVB-PP+to
p5121
I104
stRp5122
sg34
I305
sg35
F21433.5
sbs(g16
g366
tp5123
g1
(g25
g3
NtRp5124
(dp5125
g28
F0.5
sg29
I21281
sg30
g31
((dp5126
V,+to
p5127
I54
sVnn+vbg
p5128
I7
sVnn+to
p5129
I602
sVvbz+nn
p5130
I1
sV''+in
p5131
I118
sV,+vbn
p5132
I51
sVvbz+jj
p5133
I1
sVnnp+in
p5134
I725
sVrp+to
p5135
I1
sV,+vbd
p5136
I2
sV:+to
p5137
I3
sV,+vbg
p5138
I128
sVcc+to
p5139
I10
sV)+in
p5140
I29
sVvbg+to
p5141
I129
sVnnps+in
p5142
I42
sVNone+vb
p5143
I1
sVnn+vbn
p5144
I12
sVdt+to
p5145
I3
sVvbd+rp
p5146
I1
sV(+rb
p5147
I1
sVcc+in
p5148
I156
sV,+dt
p5149
I2
sVnnps+to
p5150
I5
sVrb+in
p5151
I555
sVvbd+rb
p5152
I4
sVnn+jj
p5153
I9
sV''+jj
p5154
I3
sVnns+vbg
p5155
I9
sVnns+jjs
p5156
I1
sVrb+''
p5157
I1
sVvbd+jj
p5158
I1
sVvbp+rb
p5159
I1
sVjj+in
p5160
I464
sVin+to
p5161
I38
sV``+to
p5162
I1
sVnns+rb
p5163
I9
sVin+cc
p5164
I5
sVvbp+rp
p5165
I1
sVrb+jj
p5166
I2
sVprp+to
p5167
I11
sVpos+in
p5168
I3
sV,+in
p5169
I632
sVvbz+rp
p5170
I2
sVjjr+to
p5171
I4
sVrp+in
p5172
I4
sVnn+vb
p5173
I1
sV:+rb
p5174
I1
sV,+vb
p5175
I2
sV:+in
p5176
I45
sVcd+vbg
p5177
I2
sVnns+dt
p5178
I1
sVcc+vbn
p5179
I2
sVfw+in
p5180
I3
sV(+vbn
p5181
I1
sV)+to
p5182
I4
sVcc+vbg
p5183
I4
sVdt+in
p5184
I140
sVvb+rp
p5185
I1
sVvb+jj
p5186
I4
sV:+vbn
p5187
I1
sVnn+jjr
p5188
I1
sVcd+jjr
p5189
I1
sVNone+to
p5190
I5
sV:+vbg
p5191
I6
sVvb+rb
p5192
I2
sV:+jj
p5193
I1
sVvbd+to
p5194
I151
sVvbz+vb
p5195
I1
sV``+in
p5196
I53
sVwp+in
p5197
I3
sVcd+to
p5198
I200
sVvbg+rb
p5199
I2
sVNone+dt
p5200
I1
sVwdt+in
p5201
I8
sV:+cc
p5202
I1
sVvbp+to
p5203
I15
sVnn+rbr
p5204
I2
sVin+rb
p5205
I1
sVdt+nn
p5206
I14
sV''+to
p5207
I11
sVwdt+vbd
p5208
I1
sVjj+rb
p5209
I1
sVin+in
p5210
I411
sVNone+rb
p5211
I10
sVjjr+in
p5212
I153
sVvbn+rb
p5213
I5
sVrb+to
p5214
I84
sV(+in
p5215
I20
sVNone+in
p5216
I929
sVnn+in
p5217
I6992
sVvbz+,
p5218
I1
sVnn+:
p5219
I2
sV.+to
p5220
I1
sVprp+vbg
p5221
I1
sVnns+jj
p5222
I37
sVvb+to
p5223
I101
sVdt+cc
p5224
I1
sVjj+to
p5225
I122
sVnn+,
p5226
I6
sVprp+rb
p5227
I1
sVnns+,
p5228
I4
sVvbd+vb
p5229
I1
sVvbz+to
p5230
I33
sVrb+rb
p5231
I2
sVnns+cc
p5232
I12
sVnns+to
p5233
I200
sVvbn+to
p5234
I191
sVvbz+dt
p5235
I1
sVrbr+in
p5236
I10
sVnnp+cc
p5237
I17
sVnn+rp
p5238
I2
sVrb+rbr
p5239
I1
sVnn+cc
p5240
I28
sV''+rb
p5241
I1
sV,+rp
p5242
I1
sVdt+vbp
p5243
I1
sVcd+in
p5244
I676
sVnn+rb
p5245
I6
sVvb+in
p5246
I539
sVnnp+,
p5247
I3
sVto+in
p5248
I2
sVjjs+in
p5249
I39
sVjj+vbn
p5250
I2
sV,+rb
p5251
I17
sVin+vbn
p5252
I1
sVdt+vbd
p5253
I1
sVnns+``
p5254
I1
sVvbg+vbg
p5255
I1
sVmd+in
p5256
I6
sVNone+vbg
p5257
I37
sVwrb+in
p5258
I2
sVcc+rp
p5259
I1
sVnns+vbn
p5260
I2
sVnns+in
p5261
I2923
sVNone+vbn
p5262
I4
sV''+cc
p5263
I1
sVcc+rb
p5264
I4
sVNone+``
p5265
I1
sVcd+,
p5266
I1
sV''+vbg
p5267
I3
sVsym+in
p5268
I2
sVvbz+rb
p5269
I4
sVrb+vbn
p5270
I2
sVvbz+in
p5271
I235
sV,+jj
p5272
I33
sVvbd+in
p5273
I534
sVprp+in
p5274
I123
sVvbp+in
p5275
I172
sVdt+jj
p5276
I1
sVnnp+vbg
p5277
I4
sV,+cc
p5278
I5
sVrb+vbg
p5279
I1
sVvbg+in
p5280
I382
sVnnp+to
p5281
I34
sVvbn+in
p5282
I1516
sVvbn+vbg
p5283
I4
sVrbs+in
p5284
I37
stRp5285
sg34
I1131
sg35
F21846.5
sbs(g19
g878
tp5286
g1
(g25
g3
NtRp5287
(dp5288
g28
F0.5
sg29
I21467
sg30
g31
((dp5289
g883
I21456
sg884
I11
stRp5290
sg34
I3
sg35
F21468.5
sbs(g18
g1843
tp5291
g1
(g25
g3
NtRp5292
(dp5293
g28
F0.5
sg29
I63307
sg30
g31
((dp5294
VPRP$
p5295
I19
sVVBG
p5296
I336
sVVBD
p5297
I49
sVVBN
p5298
I453
sVPOS
p5299
I12
sg1557
I83
sVVBP
p5300
I60
sVJJ
p5301
I6771
sVWP
p5302
I3
sVVBZ
p5303
I76
sVDT
p5304
I299
sV#
I10
sV$
I419
sVNN
p5305
I24456
sV)
I6
sV(
I7
sVFW
p5306
I28
sV,
I512
sV.
I14
sVTO
p5307
I90
sVPRP
p5308
I9
sVRB
p5309
I307
sV:
I5
sVNNS
p5310
I9996
sVNNP
p5311
I11470
sg1568
I156
sVWRB
p5312
I2
sVCC
p5313
I1409
sVPDT
p5314
I6
sVRBS
p5315
I74
sVRBR
p5316
I34
sVCD
p5317
I5050
sVIN
p5318
I216
sVMD
p5319
I5
sVNNPS
p5320
I343
sVJJS
p5321
I276
sVJJR
p5322
I204
sVVB
p5323
I39
sVUH
p5324
I3
stRp5325
sg34
I44
sg35
F63329
sbs(VO
g1547
tp5326
g1
(g25
g3
NtRp5327
(dp5328
g28
F0.5
sg29
I38297
sg30
g31
((dp5329
Vvb
p5330
I26
sVcc
p5331
I3746
sVjjs
p5332
I48
sVjjr
p5333
I252
sVcd
p5334
I110
sg1894
I1397
sVex
p5335
I17
sVin
p5336
I3174
sVnns
p5337
I13
sVnnp
p5338
I80
sV#
I7
sVrp
p5339
I74
sV$
I22
sVnn
p5340
I182
sV)
I275
sV(
I264
sV,
I10206
sV.
I8813
sVto
p5341
I41
sVrb
p5342
I4162
sVrbr
p5343
I216
sV:
I1032
sg96
I1310
sVfw
p5344
I3
sVsym
p5345
I4
sVpos
p5346
I2
sVjj
p5347
I1821
sVwp
p5348
I1
sVwrb
p5349
I459
sVdt
p5350
I212
sVmd
p5351
I37
sVprp$
p5352
I4
sVvbg
p5353
I15
sVvbd
p5354
I27
sVpdt
p5355
I5
sVrbs
p5356
I26
sVvbn
p5357
I145
sVvbp
p5358
I24
sVwdt
p5359
I6
sVuh
p5360
I12
sVvbz
p5361
I23
sVprp
p5362
I4
stRp5363
sg34
I44
sg35
F38319
sbs(VO
g878
tp5364
g1
(g25
g3
NtRp5365
(dp5366
g28
F0.5
sg29
I38297
sg30
g31
((dp5367
g883
I14967
sg884
I23326
sg885
I4
stRp5368
sg34
I3
sg35
F38298.5
sbs(g15
g366
tp5369
g1
(g25
g3
NtRp5370
(dp5371
g28
F0.5
sg29
I291
sg30
g31
((dp5372
Vvb+cc
p5373
I1
sVrb+jj
p5374
I1
sVin+dt
p5375
I1
sVcc+in
p5376
I9
sVrb+in
p5377
I53
sV''+in
p5378
I1
sV``+in
p5379
I1
sVin+in
p5380
I100
sVjj+to
p5381
I3
sVrb+to
p5382
I2
sV,+rb
p5383
I2
sVnn+in
p5384
I1
sVcc+rb
p5385
I1
sVrb+rb
p5386
I4
sV:+cc
p5387
I1
sV:+rb
p5388
I1
sVdt+in
p5389
I5
sV,+cc
p5390
I13
sVjj+in
p5391
I80
sVrb+vbg
p5392
I1
sVto+cc
p5393
I1
sVin+cc
p5394
I8
sV``+rb
p5395
I1
stRp5396
sg34
I1131
sg35
F856.5
sbs(g19
g366
tp5397
g1
(g25
g3
NtRp5398
(dp5399
g28
F0.5
sg29
I21467
sg30
g31
((dp5400
V,+to
p5401
I46
sVprp+vb
p5402
I30
sV,+vbz
p5403
I338
sVnn+md
p5404
I545
sVvbz+nn
p5405
I3
sV,+vbp
p5406
I77
sVvbg+vbz
p5407
I14
sVex+to
p5408
I1
sVvbg+vbd
p5409
I7
sVwdt+nns
p5410
I2
sVex+md
p5411
I23
sVnns+vb
p5412
I14
sVvbg+vbn
p5413
I5
sVex+vbd
p5414
I36
sVvbg+to
p5415
I5
sVprp$+nn
p5416
I2
sVex+vbn
p5417
I1
sVnnp+pos
p5418
I2
sVjjr+nn
p5419
I1
sVNone+vb
p5420
I32
sVex+vbp
p5421
I38
sVnn+to
p5422
I599
sVex+vbz
p5423
I90
sVnnp+vb
p5424
I30
sVvbp+vbd
p5425
I9
sVnn+sym
p5426
I2
sV,+dt
p5427
I1
sVvbp+vbn
p5428
I1
sVrb+in
p5429
I1
sVjj+nns
p5430
I4
sVnn+jj
p5431
I4
sVjjs+vbz
p5432
I2
sVvbp+vbz
p5433
I8
sVcc+rbr
p5434
I1
sVdt+vb
p5435
I9
sVrbr+vbp
p5436
I2
sV,+nns
p5437
I4
sV``+vbz
p5438
I30
sVwdt+rb
p5439
I3
sV,+vbn
p5440
I182
sV``+vbg
p5441
I20
sV``+vbd
p5442
I14
sV``+vbn
p5443
I10
sVrbr+vbn
p5444
I2
sVjjs+rb
p5445
I1
sVprp+to
p5446
I36
sVprp+nn
p5447
I1
sVpos+to
p5448
I1
sVwp+rb
p5449
I1
sVnn+vb
p5450
I41
sV,+vbd
p5451
I554
sV,+vb
p5452
I37
sVprp+md
p5453
I432
sV,+vbg
p5454
I316
sV:+vbz
p5455
I21
sV:+vbp
p5456
I10
sV:+vbn
p5457
I8
sVNone+to
p5458
I25
sV:+vbg
p5459
I13
sV:+vbd
p5460
I20
sVvbd+to
p5461
I23
sVvbd+vbg
p5462
I3
sVvbd+vbd
p5463
I9
sVvbd+vbn
p5464
I4
sVvbd+md
p5465
I3
sV:+nnp
p5466
I3
sVvbd+vbp
p5467
I1
sVcc+vb
p5468
I124
sVin+nn
p5469
I48
sVcd+rb
p5470
I1
sVwrb+to
p5471
I13
sVvbp+to
p5472
I6
sVpos+md
p5473
I1
sVnns+nnp
p5474
I1
sVnns+nns
p5475
I2
sVvbz+vbp
p5476
I3
sVnn+rbs
p5477
I2
sVwp+``
p5478
I1
sVvbz+vbn
p5479
I3
sVnnps+nn
p5480
I8
sVvbp+md
p5481
I4
sVvbz+vbd
p5482
I1
sVvbz+vbg
p5483
I10
sVin+nns
p5484
I8
sVdt+nn
p5485
I22
sVcc+nnp
p5486
I2
sVcc+nns
p5487
I14
sVdt+vbz
p5488
I154
sVvb+vb
p5489
I2
sVprp+prp
p5490
I3
sVNone+nnp
p5491
I5
sV``+nns
p5492
I1
sV``+nnp
p5493
I1
sVvbd+vbz
p5494
I5
sVcc+to
p5495
I32
sVnns+jj
p5496
I7
sVpos+vbz
p5497
I3
sVnnp+rb
p5498
I5
sVnns+md
p5499
I391
sVrb+rb
p5500
I5
sVvbz+vbz
p5501
I6
sVnns+to
p5502
I333
sVNone+jj
p5503
I1
sVprp+dt
p5504
I1
sVcd+nn
p5505
I3
sVcc+md
p5506
I53
sVwdt+vbp
p5507
I147
sVwdt+vbd
p5508
I243
sV:+md
p5509
I8
sVjjs+vb
p5510
I3
sVrbr+to
p5511
I1
sVrb+nn
p5512
I3
sVdt+vbp
p5513
I16
sV:+vb
p5514
I12
sVnn+rb
p5515
I30
sVpos+vbd
p5516
I6
sVdt+vbn
p5517
I22
sVpos+vbg
p5518
I2
sVNone+vbz
p5519
I12
sV,+rb
p5520
I27
sVdt+vbg
p5521
I9
sVpos+vbn
p5522
I3
sVvbp+vbg
p5523
I2
sVcc+rb
p5524
I34
sV''+vbd
p5525
I123
sVvbg+vbg
p5526
I3
sV``+md
p5527
I20
sVvb+nn
p5528
I1
sV.+vbz
p5529
I1
sVjj+nn
p5530
I26
sV''+vbn
p5531
I7
sVdt+md
p5532
I31
sVvbg+nn
p5533
I1
sV''+vbp
p5534
I5
sVdt+rb
p5535
I2
sVwdt+vbz
p5536
I269
sVrb+pos
p5537
I1
sV''+vbz
p5538
I206
sV``+nn
p5539
I2
sVnns+rbs
p5540
I2
sVnns+rbr
p5541
I1
sV''+vbg
p5542
I12
sVvbg+nns
p5543
I1
sV)+vbp
p5544
I6
sVvbd+rb
p5545
I1
sVvbp+vbp
p5546
I3
sV)+vbz
p5547
I19
sV)+vbd
p5548
I8
sVwdt+to
p5549
I1
sVin+nnp
p5550
I1
sVwdt+md
p5551
I131
sV:+jjr
p5552
I1
sVnn+``
p5553
I1
sV)+vbn
p5554
I3
sV``+rb
p5555
I2
sVnn+vbg
p5556
I173
sVnn+vbd
p5557
I1438
sVnn+vbn
p5558
I328
sVnns+nn
p5559
I19
sVin+jj
p5560
I6
sVin+md
p5561
I4
sVjj+cc
p5562
I1
sVnn+vbp
p5563
I106
sVrb+nns
p5564
I3
sV:+to
p5565
I5
sVnn+vbz
p5566
I1139
sVcc+jj
p5567
I5
sVvb+vbp
p5568
I1
sVvb+vbz
p5569
I10
sVcc+jjr
p5570
I1
sVjjs+vbp
p5571
I3
sVnns+vbn
p5572
I298
sVvb+vbg
p5573
I1
sVvb+vbd
p5574
I2
sVin+dt
p5575
I1
sVdt+to
p5576
I1
sVnnps+vbz
p5577
I11
sVwp+vbp
p5578
I94
sV(+rb
p5579
I1
sVwp+vbz
p5580
I108
sVcc+in
p5581
I2
sVnnps+vbp
p5582
I30
sVnnp+nn
p5583
I17
sV``+vbp
p5584
I22
sVnnps+vbn
p5585
I3
sVwp+vbd
p5586
I140
sVwp+vb
p5587
I1
sVnnps+vbg
p5588
I5
sVnnps+vbd
p5589
I51
sVnnp+vbz
p5590
I697
sVin+to
p5591
I29
sVwrb+nn
p5592
I1
sV``+to
p5593
I7
sVmd+vb
p5594
I7
sVcd+vbz
p5595
I38
sVrb+jj
p5596
I5
sV''+vb
p5597
I3
sVcd+vbp
p5598
I5
sVjjr+to
p5599
I10
sVfw+nn
p5600
I1
sV:+rb
p5601
I2
sVcd+vbn
p5602
I16
sVto+vbz
p5603
I1
sVjj+md
p5604
I7
sVcd+vbg
p5605
I9
sVcd+vbd
p5606
I54
sVjjs+md
p5607
I1
sVjj+jj
p5608
I1
sVcc+vbn
p5609
I61
sVwdt+nn
p5610
I1
sV)+to
p5611
I4
sVcc+vbd
p5612
I176
sVcc+vbg
p5613
I83
sVnnp+nns
p5614
I28
sVnnp+nnp
p5615
I4
sVcc+vbz
p5616
I104
sVcc+nn
p5617
I24
sVrbr+vbd
p5618
I2
sVcd+md
p5619
I17
sVprp+jj
p5620
I3
sVcc+vbp
p5621
I42
sVvb+rb
p5622
I1
sV``+vb
p5623
I22
sV,+nn
p5624
I26
sVvbz+md
p5625
I7
sVvbn+md
p5626
I7
sVprp+``
p5627
I3
sVpos+nnp
p5628
I1
sVvbz+vb
p5629
I4
sVwrb+vbg
p5630
I1
sV.+vb
p5631
I3
sVcd+to
p5632
I54
sVwrb+vbn
p5633
I1
sVnnps+vb
p5634
I1
sVjjr+md
p5635
I1
sVrb+cd
p5636
I1
sVin+vb
p5637
I1
sV''+to
p5638
I11
sVnnps+md
p5639
I15
sV''+md
p5640
I11
sVnnp+md
p5641
I202
sVnns+rb
p5642
I40
sVrb+to
p5643
I69
sVprp+vbn
p5644
I5
sVnnp+jj
p5645
I3
sVprp+vbd
p5646
I974
sVprp+vbz
p5647
I825
sVNone+rb
p5648
I2
sVprp+vbg
p5649
I3
sVin+``
p5650
I1
sVwp+to
p5651
I7
sV)+vb
p5652
I3
sVvb+to
p5653
I23
sV)+md
p5654
I7
sVprp+vbp
p5655
I726
sVjj+to
p5656
I251
sVrbs+vbp
p5657
I2
sVprp+rb
p5658
I9
sVvbn+vbp
p5659
I5
sVjjs+jj
p5660
I1
sV(+vb
p5661
I1
sVcd+vb
p5662
I4
sVvbz+to
p5663
I33
sVnn+nn
p5664
I43
sVnnps+to
p5665
I8
sVvb+md
p5666
I5
sVto+vbg
p5667
I29
sVvbn+to
p5668
I81
sVnn+,
p5669
I4
sVdt+vbd
p5670
I43
sVnn+pos
p5671
I1
sVrb+md
p5672
I72
sV''+nns
p5673
I2
sVvbn+vbz
p5674
I5
sV,+md
p5675
I90
sVin+vbp
p5676
I7
sVjj+vbp
p5677
I4
sVin+vbz
p5678
I18
sVwdt+pos
p5679
I1
sVjj+vbz
p5680
I9
sVjj+vbg
p5681
I7
sVjj+vbd
p5682
I11
sVin+vbg
p5683
I531
sVin+vbd
p5684
I2
sVjjr+vbg
p5685
I1
sVjj+vbn
p5686
I10
sVin+vbn
p5687
I38
sVrb+vb
p5688
I41
sVnns+``
p5689
I1
sVnns+vbz
p5690
I95
sVnn+nns
p5691
I70
sVnns+vbp
p5692
I1141
sVto+vb
p5693
I4
sVNone+vbg
p5694
I74
sVNone+vbd
p5695
I5
sVNone+vbn
p5696
I30
sVnns+vbg
p5697
I187
sVjj+vb
p5698
I5
sVdt+nns
p5699
I2
sV(+vbn
p5700
I5
sV:+nn
p5701
I4
sVin+rb
p5702
I11
sVprp$+vbg
p5703
I1
sVwp+md
p5704
I33
sVcc+cd
p5705
I1
sVrb+vbn
p5706
I39
sV,+jj
p5707
I7
sVnnp+vbn
p5708
I8
sVdt+jj
p5709
I3
sVrb+vbp
p5710
I186
sVnnp+vbg
p5711
I32
sVnnp+vbd
p5712
I1250
sVrb+vbz
p5713
I231
sVnnps+jj
p5714
I1
sVrb+vbg
p5715
I39
sVnns+vbd
p5716
I1071
sVnnp+to
p5717
I107
sVrb+vbd
p5718
I275
sVvbn+vbd
p5719
I3
sVvbn+vbn
p5720
I1
sVvbn+vbg
p5721
I4
sVwp+dt
p5722
I1
sV)+nns
p5723
I1
sVnnp+vbp
p5724
I67
stRp5725
sg34
I1131
sg35
F22032.5
sbs(g15
g36
tp5726
g1
(g25
g3
NtRp5727
(dp5728
g28
F0.5
sg29
I291
sg30
g31
((dp5729
Vvb
p5730
I1
sVjj
p5731
I83
sVnn
p5732
I1
sVcc
p5733
I10
sg1828
I2
sV,
I15
sg1830
I1
sVto
p5734
I1
sVrb
p5735
I61
sVin
p5736
I109
sVdt
p5737
I5
sV:
I2
stRp5738
sg34
I45
sg35
F313.5
sbs(g19
g1535
tp5739
g1
(g25
g3
NtRp5740
(dp5741
g28
F0.5
sg29
I21467
sg30
g31
((dp5742
VI-PP
p5743
I10
sVB-PP
p5744
I572
sVI-VP
p5745
I110
sVO
I4651
sg18
I8512
sVB-VP
p5746
I155
sVB-NP
p5747
I7271
sNI186
stRp5748
sg34
I8
sg35
F21471
sbssS'_label_probdist'
p5749
g1
(g25
g3
NtRp5750
(dp5751
g28
F0.5
sg29
I211727
sg30
g31
((dp5752
g18
I63307
sg19
I21467
sg15
I291
sg16
I21281
sg17
I12003
sg20
I55081
sVO
I38297
stRp5753
sg34
I7
sg35
F211730.5
sbsbsb.