ccopy_reg
_reconstructor
p1
(cnltk.tag.sequential
ClassifierBasedPOSTagger
p2
c__builtin__
object
p3
NtRp4
(dp5
S'_taggers'
p6
(lp7
g4
asS'_cutoff_prob'
p8
NsS'_classifier'
p9
g1
(cnltk.classify.naivebayes
NaiveBayesClassifier
p10
g3
NtRp11
(dp12
S'_labels'
p13
(lp14
VI-NP
p15
aVB-NP
p16
aVO
asS'_feature_probdist'
p17
(dp18
(g16
Vsuffix3
p19
tp20
g1
(cnltk.probability
ELEProbDist
p21
g3
NtRp22
(dp23
S'_gamma'
p24
F0.5
sS'_N'
p25
I24667
sS'_freqdist'
p26
cnltk.probability
FreqDist
p27
((dp28
Vvb
p29
I38
sVcc
p30
I1
sVjjs
p31
I52
sVjjr
p32
I148
sVcd
p33
I1511
sV''
p34
I9
sVex
p35
I87
sVin
p36
I21
sVwp$
p37
I10
sVnns
p38
I1669
sVnnp
p39
I4162
sV#
I11
sV|nn
p40
I1
sVrp
p41
I1
sV$
I609
sVnn
p42
I2450
sV(
I3
sV,
I1
sVls
p43
I11
sVrb
p44
I42
sVrbr
p45
I12
sV:
I21
sV``
p46
I1
sVfw
p47
I2
sVpos
p48
I10
sVrp$
p49
I747
sVjj
p50
I2350
sVwp
p51
I238
sVdt
p52
I8094
sVnps
p53
I43
sVvbg
p54
I89
sVvbd
p55
I10
sVpdt
p56
I25
sVrbs
p57
I3
sVvbn
p58
I47
sVvbp
p59
I10
sVwdt
p60
I434
sVuh
p61
I1
sVvbz
p62
I21
sVprp
p63
I1672
stRp64
sS'_bins'
p65
I46
sS'_divisor'
p66
F24690
sbs(g16
Vprevprevtag
p67
tp68
g1
(g21
g3
NtRp69
(dp70
g24
F0.5
sg25
I24667
sg26
g27
((dp71
g15
I8124
sVB-NP
p72
I4228
sNI3492
sVO
I8823
stRp73
sg65
I4
sg66
F24669
sbs(VO
Vsuffix1
p74
tp75
g1
(g21
g3
NtRp76
(dp77
g24
F0.5
sg25
I42769
sg26
g27
((dp78
Vc
I2258
sVg
I1235
sVz
I2066
sVn
I12260
sV`
I714
sV#
I5
sVb
I5430
sVd
I3944
sV'
I701
sV)
I128
sV(
I119
sVj
I657
sVm
I1
sV,
I4889
sVo
I2179
sV.
I3873
sVp
I1428
sVs
I104
sVr
I282
sVt
I23
sVw
I1
sVh
I2
sV:
I470
stRp79
sg65
I25
sg66
F42781.5
sbs(g15
g74
tp80
g1
(g21
g3
NtRp81
(dp82
g24
F0.5
sg25
I26764
sg26
g27
((dp83
V'
I4
sVb
I54
sV.
I1
sV$
I138
sVc
I9
sV:
I80
sVd
I2056
sVg
I135
sVj
I2832
sVo
I1
sVn
I10509
sVp
I5304
sVs
I5456
sVr
I78
sVt
I65
sVw
I1
sVx
I1
sVz
I40
stRp84
sg65
I25
sg66
F26776.5
sbs(g15
Vprevprevword
p85
tp86
g1
(g21
g3
NtRp87
(dp88
g24
F0.5
sg25
I26764
sg26
g27
((dp89
Vvb
p90
I1056
sVcc
p91
I1030
sVjjs
p92
I58
sVpos
p93
I399
sVcd
p94
I721
sV''
p95
I157
sVvbn
p96
I364
sVprp
p97
I31
sVin
p98
I6314
sVwp$
p99
I2
sVnns
p100
I218
sVnnp
p101
I2216
sV#
I15
sVnnps
p102
I39
sVwrb
p103
I88
sV$
I472
sVnn
p104
I975
sV)
I15
sV(
I46
sV,
I1357
sV.
I1
sVto
p105
I663
sVrb
p106
I350
sV:
I273
sV``
p107
I221
sVsym
p108
I1
sVjjr
p109
I54
sVjj
p110
I1328
sVwp
p111
I20
sVrp
p112
I43
sVdt
p113
I3713
sVmd
p114
I8
sVprp$
p115
I330
sVvbg
p116
I555
sVvbd
p117
I1000
sVpdt
p118
I23
sVrbs
p119
I22
sVrbr
p120
I29
sVvbp
p121
I281
sVwdt
p122
I21
sVvbz
p123
I607
sNI1647
sVex
p124
I1
stRp125
sg65
I47
sg66
F26787.5
sbs(VO
Vprevprevtag+word
p126
tp127
g1
(g21
g3
NtRp128
(dp129
g24
F0.5
sg25
I42769
sg26
g27
((dp130
VNone+jjs
p131
I5
sVNone+,
p132
I167
sVNone+.
p133
I8
sVNone+)
p134
I17
sVNone+(
p135
I19
sVI-NP+wrb
p136
I50
sVNone+jjr
p137
I8
sVI-NP+jjs
p138
I4
sVI-NP+jjr
p139
I34
sVO+wdt
p140
I3
sVNone+:
p141
I33
sVNone+vbg
p142
I66
sVNone+md
p143
I46
sVO+``
p144
I222
sVO+nns
p145
I12
sVO+nnp
p146
I10
sVI-NP+''
p147
I181
sVB-NP+nn
p148
I60
sVI-NP+pdt
p149
I1
sVI-NP+cd
p150
I2
sVI-NP+cc
p151
I648
sVO+(
p152
I20
sVB-NP+wdt
p153
I5
sVNone+nn
p154
I19
sVB-NP+fw
p155
I1
sVI-NP+wdt
p156
I2
sVI-NP+rbs
p157
I2
sVI-NP+rbr
p158
I22
sVO+cc
p159
I668
sVO+''
p160
I153
sVB-NP+sym
p161
I1
sVB-NP+rp
p162
I16
sVI-NP+ls
p163
I1
sVI-NP+dt
p164
I3
sVB-NP+rb
p165
I737
sVB-NP+in
p166
I2966
sVI-NP+#
p167
I5
sVO+wrb
p168
I59
sVNone+``
p169
I304
sVI-NP+in
p170
I2698
sVI-NP+)
p171
I24
sVI-NP+(
p172
I55
sVI-NP+.
p173
I1345
sVI-NP+,
p174
I1513
sVB-NP+pos
p175
I6
sVNone+to
p176
I40
sVB-NP+nnp
p177
I11
sVI-NP+:
p178
I141
sVB-NP+nns
p179
I32
sVNone+cc
p180
I228
sVI-NP+rb
p181
I759
sVNone+pos
p182
I1
sVI-NP+vbz
p183
I536
sVI-NP+vbp
p184
I336
sVO+vb
p185
I1211
sVI-NP+rp
p186
I18
sVI-NP+vbn
p187
I663
sVNone+wrb
p188
I32
sVI-NP+md
p189
I268
sVI-NP+vbd
p190
I920
sVI-NP+vbg
p191
I470
sVI-NP+jj
p192
I139
sVNone+ls
p193
I1
sVI-NP+to
p194
I520
sVNone+uh
p195
I1
sVB-NP+``
p196
I72
sVB-NP+cc
p197
I714
sVNone+''
p198
I249
sVB-NP+to
p199
I674
sVO+dt
p200
I2
sVNone+nnp
p201
I7
sVO+in
p202
I3570
sVI-NP+pos
p203
I3
sVNone+vb
p204
I30
sVNone+rb
p205
I270
sVNone+in
p206
I710
sVO+vbg
p207
I422
sVNone+dt
p208
I4
sVB-NP+''
p209
I118
sVNone+rp
p210
I1
sVO+vbd
p211
I799
sVB-NP+vbg
p212
I277
sVB-NP+jj
p213
I171
sVO+to
p214
I945
sVB-NP+:
p215
I180
sVO+pos
p216
I7
sVNone+jj
p217
I17
sVO+jjs
p218
I7
sVO+jjr
p219
I73
sVB-NP+(
p220
I25
sVB-NP+)
p221
I35
sVB-NP+.
p222
I1410
sVB-NP+,
p223
I1718
sVO+vbn
p224
I795
sVB-NP+vb
p225
I511
sVO+jj
p226
I330
sVB-NP+md
p227
I288
sVB-NP+jjr
p228
I57
sVB-NP+jjs
p229
I3
sVO+vbz
p230
I715
sVO+vbp
p231
I456
sVB-NP+prp
p232
I1
sVNone+vbp
p233
I90
sVO+:
p234
I116
sVNone+vbz
p235
I164
sVO+rbs
p236
I6
sVO+rbr
p237
I55
sVNone+vbd
p238
I220
sVO+nn
p239
I180
sVO+)
p240
I52
sVNone+vbn
p241
I43
sVB-NP+wrb
p242
I35
sVO+,
p243
I1491
sVO+.
p244
I1110
sVNone+rbs
p245
I3
sVNone+rbr
p246
I3
sVO+rb
p247
I980
sVB-NP+rbr
p248
I30
sVB-NP+rbs
p249
I1
sVB-NP+uh
p250
I1
sVNone+prp
p251
I1
sVI-NP+``
p252
I116
sVO+rp
p253
I70
sVO+md
p254
I323
sVB-NP+vbd
p255
I1078
sVB-NP+dt
p256
I3
sVI-NP+nn
p257
I90
sVB-NP+vbn
p258
I466
sVB-NP+vbp
p259
I408
sVI-NP+nnp
p260
I3
sVI-NP+nns
p261
I10
sVI-NP+vb
p262
I756
sVB-NP+vbz
p263
I651
stRp264
sg65
I173
sg66
F42855.5
sbs(VO
g85
tp265
g1
(g21
g3
NtRp266
(dp267
g24
F0.5
sg25
I42769
sg26
g27
((dp268
Vvb
p269
I940
sVcc
p270
I881
sVjjs
p271
I85
sVjjr
p272
I165
sVcd
p273
I1810
sV''
p274
I219
sVvbn
p275
I774
sVprp
p276
I1191
sVin
p277
I2916
sVwp$
p278
I10
sVnns
p279
I2545
sVnnp
p280
I4348
sV#
I1
sVnnps
p281
I102
sVrp
p282
I24
sV$
I171
sVnn
p283
I5669
sV)
I51
sV(
I65
sV,
I2190
sVto
p284
I678
sVls
p285
I5
sVrb
p286
I1329
sVvbg|nn
p287
I1
sV:
I180
sV``
p288
I378
sVfw
p289
I3
sVpos
p290
I387
sVjj
p291
I3672
sVwp
p292
I138
sVwrb
p293
I71
sVdt
p294
I4063
sVmd
p295
I591
sVprp$
p296
I418
sVvbg
p297
I558
sVvbd
p298
I1247
sVpdt
p299
I4
sVrbs
p300
I10
sVrbr
p301
I59
sVvbp
p302
I711
sVwdt
p303
I284
sVvbz
p304
I984
sNI2807
sVex
p305
I34
stRp306
sg65
I47
sg66
F42792.5
sbs(g16
g126
tp307
g1
(g21
g3
NtRp308
(dp309
g24
F0.5
sg25
I24667
sg26
g27
((dp310
VNone+jjs
p311
I6
sVNone+jjr
p312
I10
sVNone+$
p313
I1
sVI-NP+jjs
p314
I11
sVI-NP+jjr
p315
I42
sVO+wdt
p316
I66
sVNone+ex
p317
I35
sVNone+:
p318
I5
sVB-NP+vbg
p319
I14
sVNone+vbg
p320
I7
sVNone+pdt
p321
I4
sVNone+vb
p322
I4
sVO+nns
p323
I614
sVO+nnp
p324
I974
sVO+$
p325
I264
sVI-NP+''
p326
I1
sVB-NP+nn
p327
I454
sVI-NP+pdt
p328
I3
sVO+nnps
p329
I6
sVI-NP+vbg
p330
I22
sVI-NP+cd
p331
I575
sVB-NP+wdt
p332
I118
sVB-NP+wp
p333
I52
sVNone+wp
p334
I23
sVB-NP+pdt
p335
I2
sVNone+nn
p336
I243
sVB-NP+fw
p337
I2
sVI-NP+wdt
p338
I247
sVO+cd
p339
I617
sVO+cc
p340
I1
sVB-NP+nnps
p341
I8
sVI-NP+prp$
p342
I228
sVI-NP+ls
p343
I1
sVI-NP+dt
p344
I2359
sVB-NP+rb
p345
I5
sVO+wp
p346
I75
sVO+nn
p347
I846
sVI-NP+#
p348
I5
sVI-NP+$
p349
I241
sVI-NP+(
p350
I2
sVI-NP+,
p351
I1
sVB-NP+pos
p352
I1
sVB-NP+nnp
p353
I704
sVI-NP+:
p354
I6
sVB-NP+nns
p355
I279
sVI-NP+rb
p356
I6
sVNone+pos
p357
I1
sVI-NP+vbz
p358
I3
sVI-NP+vbp
p359
I4
sVO+vb
p360
I18
sVI-NP+vbn
p361
I11
sVI-NP+vbg|nn
p362
I1
sVO+in
p363
I7
sVI-NP+vbd
p364
I2
sVNone+dt
p365
I1244
sVI-NP+ex
p366
I14
sVI-NP+jj
p367
I830
sVNone+ls
p368
I4
sVI-NP+prp
p369
I344
sVNone+''
p370
I7
sVB-NP+cd
p371
I257
sVO+ls
p372
I5
sVO+dt
p373
I3111
sVB-NP+vb
p374
I2
sVNone+rb
p375
I10
sVNone+nns
p376
I231
sVO+uh
p377
I1
sVNone+nnp
p378
I910
sVI-NP+wp
p379
I88
sVO+jj
p380
I882
sVNone+wdt
p381
I3
sVB-NP+in
p382
I2
sVO+jjr
p383
I74
sVO+vbg
p384
I46
sVI-NP+wp$
p385
I6
sVO+pdt
p386
I16
sVB-NP+''
p387
I1
sVB-NP+jjs
p388
I5
sVI-NP+nnps
p389
I18
sVB-NP+prp$
p390
I122
sVB-NP+jj
p391
I423
sVB-NP+wp$
p392
I1
sVB-NP+:
p393
I2
sVO+pos
p394
I8
sVNone+jj
p395
I215
sVO+jjs
p396
I30
sVB-NP+#
p397
I2
sVB-NP+$
p398
I103
sVB-NP+(
p399
I1
sVO+vbn
p400
I23
sVNone+nnps
p401
I11
sVO+prp$
p402
I344
sVI-NP+``
p403
I1
sVO+prp
p404
I702
sVB-NP+jjr
p405
I22
sVO+vbd
p406
I4
sVO+vbz
p407
I12
sVO+vbp
p408
I2
sVB-NP+prp
p409
I236
sVNone+vbp
p410
I2
sVO+:
p411
I8
sVB-NP+ex
p412
I9
sVI-NP+in
p413
I12
sVO+rbs
p414
I3
sVO+rbr
p415
I6
sVO+#
p416
I4
sVNone+vbd
p417
I3
sVNone+cd
p418
I62
sVNone+vbn
p419
I2
sVO+wp$
p420
I3
sVNone+rbr
p421
I2
sVO+rb
p422
I21
sVNone+vbz
p423
I4
sVB-NP+rbr
p424
I4
sVNone+prp
p425
I390
sVO+rp
p426
I1
sVO+ex
p427
I29
sVB-NP+ls
p428
I1
sVB-NP+vbd
p429
I1
sVB-NP+dt
p430
I1380
sVNone+prp$
p431
I53
sVI-NP+nn
p432
I907
sVB-NP+vbn
p433
I11
sVB-NP+vbp
p434
I2
sVI-NP+nnp
p435
I1574
sVI-NP+nns
p436
I545
sVI-NP+vb
p437
I14
sVB-NP+vbz
p438
I2
stRp439
sg65
I173
sg66
F24753.5
sbs(g15
Vprevword+word
p440
tp441
g1
(g21
g3
NtRp442
(dp443
g24
F0.5
sg25
I26764
sg26
g27
((dp444
Vprp+nnp
p445
I2
sVprp$+nn
p446
I334
sVprp+nns
p447
I1
sVdt+$
p448
I69
sVvbz+nn
p449
I5
sVvbn+nn
p450
I86
sVwdt+nnp
p451
I1
sVvbg+vbg
p452
I1
sV:+vbp
p453
I5
sVwp$+jj
p454
I1
sVprp$+cd
p455
I18
sVcd+nns
p456
I524
sVcd+nnp
p457
I49
sVprp$+$
p458
I9
sVvb+cd
p459
I1
sVvbn+nnp
p460
I3
sVvbp+nnp
p461
I1
sVjjr+nn
p462
I77
sVvbd+cd
p463
I2
sVnnp+vb
p464
I1
sVjjs+vbg
p465
I2
sVjj+nns
p466
I1411
sVnn+jj
p467
I76
sVjjs+nn
p468
I51
sVvbz+rb
p469
I12
sVvbd+jj
p470
I1
sVwdt+nns
p471
I5
sVwp+pdt
p472
I1
sVin+prp$
p473
I2
sVpos+cd
p474
I19
sVnn+vb
p475
I6
sVnns+dt
p476
I2
sVrbs+jj
p477
I22
sVvb+jj
p478
I2
sVnn+vbz
p479
I19
sV:+vbn
p480
I3
sVrbr+jj
p481
I22
sV:+vbg
p482
I3
sV:+vbd
p483
I5
sVvbg+jj
p484
I6
sV:+jj
p485
I15
sVjj+prp$
p486
I1
sVjjr+nnp
p487
I4
sVjjr+nns
p488
I74
sV:+nns
p489
I4
sV:+nnp
p490
I9
sVin+nn
p491
I11
sVnn+prp
p492
I1
sVnn+dt
p493
I2
sV:+cc
p494
I5
sV:+cd
p495
I5
sVnns+nnp
p496
I8
sVnns+nns
p497
I74
sVnns+pos
p498
I58
sVnnps+nn
p499
I5
sVvbz+vbg
p500
I1
sVin+nnp
p501
I1
sVcc+nnp
p502
I2
sVjj+nnps
p503
I5
sVnnp+pos
p504
I457
sVvbz+nnp
p505
I4
sVvbz+nns
p506
I2
sVjjr+cd
p507
I1
sVwdt+dt
p508
I1
sVvb+prp$
p509
I2
sVvbn+nns
p510
I45
sVprp+jj
p511
I3
sVprp$+jjs
p512
I10
sVjj+rbr
p513
I1
sVprp$+nnps
p514
I1
sVto+vb
p515
I1
sVnns+jj
p516
I27
sVnn+''
p517
I1
sVvbn+$
p518
I5
sVvbg+cd
p519
I3
sVvbg+''
p520
I1
sVpos+jj
p521
I165
sVpos+nnps
p522
I5
sVnnp+rp
p523
I1
sVvbn+:
p524
I1
sVrb+rb
p525
I1
sVjjr+vb
p526
I1
sVnnps+:
p527
I2
sVdt+rbr
p528
I13
sVnnp+''
p529
I2
sVcd+nn
p530
I749
sVvbp+cd
p531
I1
sVwp$+nns
p532
I5
sVdt+vbn
p533
I78
sV:+md
p534
I2
sVrb+nn
p535
I1
sVnn+rb
p536
I2
sVpos+vbd
p537
I1
sVwdt+vbp
p538
I1
sVpos+vbg
p539
I5
sVdt+vbg
p540
I62
sVwp+nn
p541
I3
sVpos+vbn
p542
I8
sVvb+nn
p543
I7
sVjj+nn
p544
I2546
sVin+jj
p545
I7
sVnns+:
p546
I19
sVjj+prp
p547
I6
sVvbg+nn
p548
I151
sVdt+rb
p549
I12
sVnnp+prp
p550
I2
sVprp$+rbs
p551
I1
sVnns+cd
p552
I8
sVpos+$
p553
I5
sVpdt+dt
p554
I22
sVvbd+rb
p555
I13
sVnns+vbz
p556
I1
sVjjs+:
p557
I1
sVjjs+$
p558
I2
sVdt+nn
p559
I3825
sVrp+nns
p560
I1
sVdt+nnps
p561
I28
sVjj+:
p562
I7
sVnn+vbg
p563
I34
sVnn+vbd
p564
I6
sVdt+dt
p565
I6
sVnn+vbn
p566
I2
sVnns+nn
p567
I109
sVnns+wp$
p568
I4
sV#+cd
p569
I11
sVjj+cd
p570
I120
sV:+wdt
p571
I1
sVnn+vbp
p572
I1
sVrb+nns
p573
I1
sV:+to
p574
I1
sVdt+jjs
p575
I78
sVdt+jjr
p576
I48
sVpos+nn
p577
I337
sV:+dt
p578
I12
sVcd+cd
p579
I657
sVprp$+nns
p580
I158
sVin+dt
p581
I1
sVvbz+jjr
p582
I1
sVprp$+nnp
p583
I43
sVcd+jj
p584
I133
sVpos+jjr
p585
I2
sVpos+jjs
p586
I16
sVvbz+jj
p587
I1
sVcd+pos
p588
I3
sVnnp+nn
p589
I511
sVnn+prp$
p590
I4
sVvbp+prp
p591
I1
sV:+wrb
p592
I2
sVcd+prp$
p593
I1
sVmd+vb
p594
I1
sVcd+vbz
p595
I1
sVrb+jj
p596
I27
sVnnps+pos
p597
I10
sVvbp+rb
p598
I1
sVvbg+prp$
p599
I2
sV:+rb
p600
I1
sVcd+vbn
p601
I9
sV:+in
p602
I5
sVcd+prp
p603
I3
sVcd+vbg
p604
I3
sVcd+vbd
p605
I1
sVjj+jj
p606
I363
sVwdt+nn
p607
I3
sVnnp+nns
p608
I202
sVnnp+nnp
p609
I3572
sVcd+jjr
p610
I4
sVcd+jjs
p611
I4
sVcc+nn
p612
I2
sVjj+nnp
p613
I195
sVwp+nns
p614
I2
sVwp+nnp
p615
I2
sV.+cd
p616
I1
sVprp$+jjr
p617
I1
sVpos+nnp
p618
I105
sVpos+nns
p619
I105
sVjjs+dt
p620
I1
sVnns+prp$
p621
I3
sVnn+cd
p622
I77
sVdt+fw
p623
I1
sVcd+dt
p624
I8
sV$+jj
p625
I8
sV$+cd
p626
I716
sV:+wp
p627
I3
sVpdt+prp$
p628
I3
sVprp$+jj
p629
I171
sVnnps+nnp
p630
I78
sVprp$+vbn
p631
I4
sVvbd+nn
p632
I1
sVrb+jjs
p633
I1
sVrb+jjr
p634
I6
sVrbs+vbn
p635
I1
sVnnp+nnps
p636
I160
sVwp$+nn
p637
I8
sVnnp+jj
p638
I78
sVnn+:
p639
I35
sVnnps+nns
p640
I2
sVvbz+$
p641
I1
sVjjs+cd
p642
I9
sVvbp+nn
p643
I4
sVvbn+jj
p644
I8
sVdt+cd
p645
I189
sVjjs+jj
p646
I24
sVvbg+nnp
p647
I7
sVvbg+nns
p648
I41
sVjj+dt
p649
I6
sVjjr+jj
p650
I23
sVnn+nn
p651
I1547
sVrb+:
p652
I1
sVvb+dt
p653
I1
sVjj+$
p654
I10
sVvbn+cd
p655
I8
sV:+$
p656
I3
sVvbd+nns
p657
I1
sVnn+pos
p658
I269
sVnnp+cd
p659
I191
sVnnp+cc
p660
I3
sVnnp+:
p661
I9
sVnns+$
p662
I3
sVnn+cc
p663
I1
sVjj+vbp
p664
I1
sVnns+.
p665
I1
sVjj+vbg
p666
I18
sV:+prp
p667
I2
sVjjr+vbg
p668
I1
sVjj+vbn
p669
I16
sVnnp+$
p670
I2
sVdt+prp
p671
I3
sVjjr+vbn
p672
I1
sVpos+rbs
p673
I2
sVnn+nns
p674
I1024
sVnn+nnp
p675
I100
sVdt+rbs
p676
I17
sVnns+vbp
p677
I13
sVcc+jj
p678
I1
sVdt+prp$
p679
I1
sVnns+vbd
p680
I1
sVnns+vbg
p681
I1
sVvbg|nn+nn
p682
I1
sVjj+jjs
p683
I2
sVjj+jjr
p684
I2
sVdt+nns
p685
I609
sVdt+nnp
p686
I1046
sV:+nn
p687
I8
sVnnps+nnps
p688
I2
sVprp$+vbg
p689
I2
sVwdt+ex
p690
I1
sV:+vbz
p691
I1
sVcd+:
p692
I5
sVvb+nns
p693
I4
sVvb+nnp
p694
I1
sVjjr+$
p695
I1
sVdt+jj
p696
I1648
sV''+dt
p697
I1
sVnnp+vbg
p698
I2
sVnnp+vbd
p699
I3
sVnnp+vbz
p700
I18
sVnn+$
p701
I5
sVjjs+nnp
p702
I2
sVjjs+nns
p703
I32
sVnns+prp
p704
I24
sVnnp+vbp
p705
I2
stRp706
sg65
I1001
sg66
F27264.5
sbs(VO
Vprevword
p707
tp708
g1
(g21
g3
NtRp709
(dp710
g24
F0.5
sg25
I42769
sg26
g27
((dp711
Vvb
p712
I1102
sVcc
p713
I652
sVjjs
p714
I54
sVjjr
p715
I194
sVcd
p716
I1292
sV''
p717
I340
sVvbn
p718
I1524
sVex
p719
I87
sVin
p720
I888
sVnns
p721
I5450
sVnnp
p722
I4117
sVnnps
p723
I140
sVrp
p724
I54
sVnn
p725
I9604
sV)
I101
sV(
I29
sV,
I2367
sVto
p726
I1320
sVls
p727
I13
sVrb
p728
I2329
sV:
I174
sV``
p729
I206
sVfw
p730
I2
sVpos
p731
I47
sVjj
p732
I1070
sVwp
p733
I199
sVwrb
p734
I34
sVdt
p735
I383
sVmd
p736
I914
sVprp$
p737
I14
sVvbg
p738
I528
sVvbd
p739
I1574
sVrbs
p740
I12
sVrbr
p741
I107
sVvbp
p742
I905
sVwdt
p743
I391
sVuh
p744
I3
sVvbz
p745
I1307
sNI1576
sVprp
p746
I1666
stRp747
sg65
I47
sg66
F42792.5
sbs(g16
g707
tp748
g1
(g21
g3
NtRp749
(dp750
g24
F0.5
sg25
I24667
sg26
g27
((dp751
Vvb
p752
I1436
sVcc
p753
I1611
sVjjs
p754
I4
sVjjr
p755
I7
sVcd
p756
I102
sg95
I303
sVvbn
p757
I456
sVprp
p758
I43
sVin
p759
I9056
sVnns
p760
I240
sVnnp
p761
I76
sV#
I5
sVwrb
p762
I144
sVnn
p763
I357
sV)
I23
sV(
I93
sV,
I2521
sVto
p764
I859
sVrb
p765
I462
sV:
I290
sg288
I509
sVfw
p766
I1
sVsym
p767
I1
sVpos
p768
I2
sVjj
p769
I59
sVwp
p770
I34
sVrp
p771
I52
sVdt
p772
I52
sVmd
p773
I11
sVvbg
p774
I719
sVvbd
p775
I1452
sVpdt
p776
I2
sVrbr
p777
I7
sVvbp
p778
I410
sVwdt
p779
I42
sVvbz
p780
I792
sNI2433
sVex
p781
I1
stRp782
sg65
I47
sg66
F24690.5
sbs(g16
Vsuffix2
p783
tp784
g1
(g21
g3
NtRp785
(dp786
g24
F0.5
sg25
I24667
sg26
g27
((dp787
Vvb
p788
I38
sVbr
p789
I12
sVcc
p790
I1
sVwp
p791
I238
sVcd
p792
I1511
sg34
I9
sVex
p793
I87
sVin
p794
I21
sVps
p795
I43
sV#
I11
sVrp
p796
I1673
sV$
I609
sVnn
p797
I2451
sV(
I3
sV,
I1
sVls
p798
I11
sVrb
p799
I42
sVnp
p800
I4162
sV:
I21
sVbd
p801
I10
sg46
I1
sVbg
p802
I89
sVfw
p803
I2
sVbn
p804
I47
sVjr
p805
I148
sVjs
p806
I52
sVbp
p807
I10
sVjj
p808
I2350
sVbs
p809
I3
sVdt
p810
I8553
sVbz
p811
I21
sVns
p812
I1669
sVuh
p813
I1
sVp$
p814
I757
sVos
p815
I10
stRp816
sg65
I40
sg66
F24687
sbs(VO
g783
tp817
g1
(g21
g3
NtRp818
(dp819
g24
F0.5
sg25
I42769
sg26
g27
((dp820
Vvb
p821
I2508
sVbr
p822
I110
sVcc
p823
I2258
sVcd
p824
I2
sg95
I701
sVin
p825
I9944
sV#
I5
sVrp
p826
I107
sVnn
p827
I349
sV)
I128
sV(
I119
sV,
I4889
sV.
I3873
sVto
p828
I2179
sVls
p829
I2
sVrb
p830
I2922
sVnp
p831
I31
sVns
p832
I54
sVbd
p833
I3017
sg288
I714
sVbg
p834
I1235
sVym
p835
I1
sVfw
p836
I1
sVbn
p837
I1967
sVjr
p838
I172
sVjs
p839
I19
sVbp
p840
I1290
sVjj
p841
I657
sVbs
p842
I12
sVdt
p843
I23
sVbz
p844
I2066
sVmd
p845
I925
sV:
I470
sVuh
p846
I2
sVos
p847
I17
stRp848
sg65
I40
sg66
F42789
sbs(g16
Vshape
p849
tp850
g1
(g21
g3
NtRp851
(dp852
g24
F0.5
sg25
I24667
sg26
g27
((dp853
Vmixedcase
p854
I23254
sVpunct
p855
I655
sVother
p856
I758
stRp857
sg65
I3
sg66
F24668.5
sbs(g15
g783
tp858
g1
(g21
g3
NtRp859
(dp860
g24
F0.5
sg25
I26764
sg26
g27
((dp861
Vvb
p862
I10
sVjj
p863
I2832
sVcc
p864
I9
sVwp
p865
I3
sVcd
p866
I2037
sV''
p867
I4
sVex
p868
I1
sVin
p869
I5
sVps
p870
I201
sVrp
p871
I43
sV$
I115
sVnn
p872
I10382
sV.
I1
sVto
p873
I1
sVrb
p874
I44
sVnp
p875
I5235
sV:
I80
sVbd
p876
I17
sVbg
p877
I135
sVfw
p878
I1
sVbn
p879
I122
sVjr
p880
I64
sVjs
p881
I111
sVbp
p882
I23
sVbr
p883
I14
sVbs
p884
I20
sVdt
p885
I65
sVbz
p886
I40
sVmd
p887
I2
sVns
p888
I4327
sVp$
p889
I23
sVos
p890
I797
stRp891
sg65
I40
sg66
F26784
sbs(g15
g707
tp892
g1
(g21
g3
NtRp893
(dp894
g24
F0.5
sg25
I26764
sg26
g27
((dp895
Vvb
p896
I18
sVcc
p897
I5
sVjjs
p898
I124
sVpos
p899
I775
sVcd
p900
I2154
sV''
p901
I1
sVvbn
p902
I156
sVprp
p903
I6
sVin
p904
I22
sVwp$
p905
I14
sVnns
p906
I356
sVnnp
p907
I5216
sV#
I11
sVnnps
p908
I99
sVrp
p909
I1
sV$
I724
sVnn
p910
I3212
sV.
I1
sVto
p911
I1
sVrb
p912
I38
sVvbg|nn
p913
I1
sV:
I95
sVjjr
p914
I183
sVjj
p915
I4710
sVwp
p916
I8
sVdt
p917
I7733
sVmd
p918
I1
sVprp$
p919
I752
sVvbg
p920
I212
sVvbd
p921
I18
sVpdt
p922
I25
sVrbs
p923
I23
sVrbr
p924
I22
sVvbp
p925
I8
sVwdt
p926
I12
sVvbz
p927
I27
stRp928
sg65
I47
sg66
F26787.5
sbs(VO
Vprevtag
p929
tp930
g1
(g21
g3
NtRp931
(dp932
g24
F0.5
sg25
I42769
sg26
g27
((dp933
g15
I15730
sg72
I8020
sNI1576
sVO
I17443
stRp934
sg65
I4
sg66
F42771
sbs(VO
g440
tp935
g1
(g21
g3
NtRp936
(dp937
g24
F0.5
sg25
I42769
sg26
g27
((dp938
VNone+jjs
p939
I3
sVdt+,
p940
I12
sVdt+.
p941
I11
sVdt+)
p942
I1
sVdt+(
p943
I3
sVNone+jjr
p944
I6
sVnn+to
p945
I525
sVpos+jj
p946
I1
sVvbn+wrb
p947
I3
sV''+in
p948
I96
sVvbg+vbg
p949
I2
sVprp+vb
p950
I16
sVex+md
p951
I5
sVdt+:
p952
I2
sVvbg+vbn
p953
I26
sVin+wrb
p954
I12
sVex+vbd
p955
I11
sVprp$+,
p956
I1
sVvbg+to
p957
I134
sVto+nnp
p958
I1
sVcd+rb
p959
I12
sVvbg+.
p960
I28
sVnnp+pos
p961
I8
sVNone+vb
p962
I16
sVex+vbp
p963
I17
sVwdt+``
p964
I2
sVex+vbz
p965
I52
sVnnp+vb
p966
I7
sVvbd+cc
p967
I8
sVnns+in
p968
I1478
sV,+dt
p969
I2
sVcc+nn
p970
I12
sV,+vbz
p971
I138
sVvbn+nn
p972
I6
sV,+nnp
p973
I1
sVrp+.
p974
I8
sVuh+in
p975
I1
sV,+nns
p976
I1
sVvbg+vbd
p977
I3
sV``+vbz
p978
I13
sVwdt+rb
p979
I27
sV,+vbn
p980
I121
sVcc+vbp
p981
I26
sVvbd+jjr
p982
I14
sVcc+)
p983
I1
sV``+vbg
p984
I7
sV``+vbd
p985
I5
sVcd+rbr
p986
I2
sV``+vbn
p987
I13
sVnns+to
p988
I231
sVjjs+rb
p989
I5
sVpos+cc
p990
I4
sVto+rb
p991
I16
sVrp+rb
p992
I3
sVwp+rb
p993
I11
sV,+vbd
p994
I268
sV,+vb
p995
I15
sV:+vbz
p996
I5
sVdt+in
p997
I79
sVvb+jj
p998
I57
sVjjr+wrb
p999
I1
sVnn+jjs
p1000
I2
sVnn+jjr
p1001
I27
sVrbr+jj
p1002
I29
sV:+vbg
p1003
I6
sV:+vbd
p1004
I7
sVNone+cc
p1005
I189
sV''+``
p1006
I9
sVvbd+vbg
p1007
I69
sVvbd+vbd
p1008
I7
sVvbd+vbn
p1009
I304
sVcc+vbd
p1010
I89
sVvbd+to
p1011
I185
sV:+nns
p1012
I1
sV:+nnp
p1013
I2
sV``+in
p1014
I47
sVwp+in
p1015
I4
sVNone+wrb
p1016
I25
sVvbz+vb
p1017
I6
sVvbd+vbz
p1018
I1
sVNone+dt
p1019
I3
sVprp$+(
p1020
I1
sVwdt+in
p1021
I3
sVwrb+to
p1022
I2
sVvbp+to
p1023
I81
sVrbr+to
p1024
I2
sVdt+nn
p1025
I18
sVnn+rp
p1026
I4
sVNone+''
p1027
I246
sVvbn+rp
p1028
I20
sVvbn+rbr
p1029
I4
sVvbn+rbs
p1030
I1
sVvbz+nnp
p1031
I1
sVvb+wrb
p1032
I8
sVjjr+in
p1033
I126
sVvbn+rb
p1034
I97
sVNone+nnp
p1035
I3
sVnnps+rb
p1036
I2
sV``+nnp
p1037
I3
sVnn+.
p1038
I1398
sVnns+wdt
p1039
I5
sV,+``
p1040
I65
sVrp+``
p1041
I2
sVcc+to
p1042
I16
sVprp+cc
p1043
I16
sVnns+jj
p1044
I82
sVjjr+rb
p1045
I1
sV(+nnp
p1046
I1
sVpos+vbz
p1047
I2
sVprp+:
p1048
I6
sVvbn+.
p1049
I119
sVnnp+rb
p1050
I72
sVvbn+,
p1051
I69
sVvbg+cc
p1052
I22
sVnns+md
p1053
I163
sVprp+.
p1054
I53
sVprp+,
p1055
I33
sVprp+(
p1056
I3
sVprp+)
p1057
I1
sVvbn+:
p1058
I13
sVto+rbr
p1059
I3
sVnn+fw
p1060
I1
sVNone+jj
p1061
I8
sVnnp+''
p1062
I29
sVcc+md
p1063
I26
sVwp+,
p1064
I1
sVdt+vbz
p1065
I46
sVvb+.
p1066
I68
sVjjs+vb
p1067
I2
sVrb+nn
p1068
I10
sVdt+vbp
p1069
I9
sV:+vb
p1070
I4
sVvbp+:
p1071
I1
sVvb+in
p1072
I303
sVpos+vbd
p1073
I5
sVdt+vbn
p1074
I8
sVpos+vbg
p1075
I2
sVvbp+,
p1076
I31
sVvbp+.
p1077
I31
sV,+rb
p1078
I277
sVdt+vbg
p1079
I25
sV``+dt
p1080
I1
sVdt+vbd
p1081
I15
sV``+md
p1082
I8
sVvb+nn
p1083
I9
sVvbp+(
p1084
I3
sVjj+nn
p1085
I62
sVdt+md
p1086
I12
sVvbn+``
p1087
I15
sVpos+vbn
p1088
I2
sVvbn+vbg
p1089
I34
sV''+cc
p1090
I36
sVjj+``
p1091
I12
sVNone+rbs
p1092
I2
sVNone+rbr
p1093
I2
sVnns+rbs
p1094
I1
sVnns+rbr
p1095
I8
sVto+``
p1096
I9
sVrbr+.
p1097
I6
sVrbr+,
p1098
I3
sVprp$+rb
p1099
I1
sVNone+prp
p1100
I1
sVrbr+:
p1101
I2
sVvbg+nns
p1102
I2
sV)+vbp
p1103
I2
sVnns+cc
p1104
I349
sVnn+jj
p1105
I34
sVnns+''
p1106
I26
sV)+vbz
p1107
I4
sV)+vbd
p1108
I7
sV)+vbg
p1109
I1
sVin+''
p1110
I3
sVvbn+in
p1111
I782
sVwdt+md
p1112
I58
sVfw+vbz
p1113
I1
sVin+,
p1114
I32
sV)+vbn
p1115
I1
sV``+rb
p1116
I49
sVNone+)
p1117
I17
sVNone+(
p1118
I18
sV(+jj
p1119
I2
sVnns+nn
p1120
I27
sVin+md
p1121
I1
sV''+to
p1122
I9
sVprp+nn
p1123
I2
sVvbn+vb
p1124
I1
sVrp+cc
p1125
I3
sV)+in
p1126
I11
sVvb+vbp
p1127
I2
sVnnps+md
p1128
I8
sVvb+vbz
p1129
I2
sVnnps+in
p1130
I21
sVvbn+jj
p1131
I27
sVvb+vbg
p1132
I35
sVvb+vbd
p1133
I3
sVvbz+jjr
p1134
I14
sVvbz+jjs
p1135
I1
sVdt+to
p1136
I3
sVvb+``
p1137
I15
sVcc+:
p1138
I1
sVnnps+``
p1139
I1
sVnnp+nn
p1140
I9
sVrp+,
p1141
I6
sVNone+nn
p1142
I8
sV:+wrb
p1143
I1
sVvbd+:
p1144
I6
sVjj+to
p1145
I146
sVmd+vb
p1146
I753
sVnns+rb
p1147
I155
sVin+cc
p1148
I9
sVvbd+,
p1149
I60
sVvbd+.
p1150
I165
sVcd+vbz
p1151
I10
sVrb+jj
p1152
I156
sVjjr+cc
p1153
I14
sVcd+vbp
p1154
I13
sVin+jjr
p1155
I18
sVnns+wrb
p1156
I15
sVwrb+rp
p1157
I1
sV:+rb
p1158
I20
sVcd+vbn
p1159
I6
sVrbr+rb
p1160
I14
sVjj+md
p1161
I1
sVwrb+rb
p1162
I5
sVcd+vbg
p1163
I4
sVcd+vbd
p1164
I20
sVjj+jj
p1165
I3
sVvbg+:
p1166
I3
sV)+to
p1167
I4
sVvbz+wrb
p1168
I8
sVvb+rp
p1169
I27
sV)+.
p1170
I17
sVnnp+nns
p1171
I8
sVnnp+nnp
p1172
I5
sVvbg+,
p1173
I27
sVcd+jjr
p1174
I1
sVvb+jjr
p1175
I11
sVvbg+)
p1176
I1
sVcd+md
p1177
I11
sVvb+rb
p1178
I98
sVfw+)
p1179
I1
sV``+vb
p1180
I16
sV,+nn
p1181
I22
sVwrb+vbp
p1182
I3
sVvbn+md
p1183
I1
sVvbz+rbr
p1184
I7
sVcc+,
p1185
I22
sVvbg+rp
p1186
I12
sVwrb+vbz
p1187
I4
sVwrb+vbd
p1188
I2
sVwrb+vbg
p1189
I1
sVrbr+(
p1190
I1
sVcd+to
p1191
I128
sVwrb+vbn
p1192
I6
sVvbg+rb
p1193
I50
sVrbs+rb
p1194
I7
sVprp+vbn
p1195
I5
sVvb+,
p1196
I48
sV,+rbr
p1197
I3
sV,+rbs
p1198
I2
sVvb+)
p1199
I2
sVvb+(
p1200
I4
sVto+#
p1201
I5
sV''+rb
p1202
I11
sVNone+uh
p1203
I1
sV:+``
p1204
I28
sVin+vb
p1205
I3
sVto+.
p1206
I1
sVto+,
p1207
I1
sVvb+:
p1208
I7
sVwdt+,
p1209
I1
sVvbp+jjr
p1210
I5
sVnns+rp
p1211
I1
sVvbg+``
p1212
I5
sV)+:
p1213
I14
sVwdt+jjs
p1214
I1
sVnnp+md
p1215
I97
sVin+in
p1216
I205
sVwdt+:
p1217
I1
sVmd+``
p1218
I4
sVvbd+nn
p1219
I18
sVprp+vbg
p1220
I4
sV,+''
p1221
I263
sV)+,
p1222
I26
sVvbz+.
p1223
I59
sVvbz+,
p1224
I41
sVrp+to
p1225
I7
sVnnp+jj
p1226
I2
sVprp+vbd
p1227
I444
sVprp+vbz
p1228
I358
sVNone+in
p1229
I478
sVvbz+:
p1230
I11
sVin+``
p1231
I67
sVwp+to
p1232
I1
sVvbp+nn
p1233
I2
sV)+md
p1234
I2
sVprp+vbp
p1235
I302
sVvb+vbn
p1236
I237
sV``+cc
p1237
I15
sVrb+(
p1238
I2
sV(+vb
p1239
I2
sVrb+,
p1240
I257
sVrb+.
p1241
I128
sVnnp+jjr
p1242
I1
sVto+cc
p1243
I1
sVvbz+''
p1244
I2
sVnn+nn
p1245
I99
sVrb+:
p1246
I12
sV:+.
p1247
I6
sVvbg+''
p1248
I1
sVvbn+cc
p1249
I28
sVto+vbg
p1250
I8
sVpos+.
p1251
I8
sVvbz+dt
p1252
I1
sVnn+pos
p1253
I9
sVrbr+in
p1254
I33
sVrb+md
p1255
I29
sVmd+rb
p1256
I148
sVnnp+cc
p1257
I361
sV,+md
p1258
I56
sVvb+vb
p1259
I21
sVcd+wrb
p1260
I1
sVcd+in
p1261
I296
sVjj+,
p1262
I172
sVto+jjr
p1263
I2
sVrbr+vb
p1264
I3
sVrp+vbg
p1265
I1
sVnns+``
p1266
I9
sVvbn+jjr
p1267
I6
sVdt+rbs
p1268
I2
sVdt+rbr
p1269
I1
sVwrb+in
p1270
I4
sVprp+``
p1271
I9
sVmd+jjs
p1272
I1
sVvbz+rp
p1273
I9
sV(+vbn
p1274
I6
sVwrb+``
p1275
I1
sVin+rb
p1276
I120
sV(+vbg
p1277
I2
sV:+jjr
p1278
I2
sVvbz+rb
p1279
I266
sVvbp+``
p1280
I7
sVrbs+jj
p1281
I3
sV,+jj
p1282
I22
sVvb+nns
p1283
I1
sVprp+in
p1284
I60
sVvb+nnp
p1285
I2
sVvbp+in
p1286
I141
sVjj+:
p1287
I11
sVjjr+.
p1288
I27
sVjjr+,
p1289
I12
sV,+cc
p1290
I408
sVvbg+in
p1291
I200
sVnnp+to
p1292
I66
sV,+wrb
p1293
I37
sVjjr+:
p1294
I2
sVprp+jjr
p1295
I7
sV,+to
p1296
I35
sV''+(
p1297
I4
sVprp$+nn
p1298
I3
sVnn+md
p1299
I199
sVvbz+nn
p1300
I5
sV,+vbp
p1301
I38
sVvbd+jj
p1302
I56
sVwdt+nns
p1303
I1
sVnnp+in
p1304
I413
sV:+vbp
p1305
I2
sVnns+vb
p1306
I24
sV,+vbg
p1307
I200
sV:+vbn
p1308
I4
sV''+jjr
p1309
I1
sVcd+nnp
p1310
I1
sVnnp+``
p1311
I7
sVrb+``
p1312
I5
sVvbp+nnp
p1313
I1
sVNone+md
p1314
I1
sVin+:
p1315
I1
sVjjs+vbn
p1316
I3
sVvbp+vbg
p1317
I104
sVvbp+vbd
p1318
I4
sVrbr+md
p1319
I1
sVjjs+vbd
p1320
I1
sVjjs+vbg
p1321
I1
sVvbp+vbn
p1322
I226
sVrb+in
p1323
I345
sVvbp+vbp
p1324
I1
sV``+wrb
p1325
I7
sVin+.
p1326
I30
sVjjs+vbz
p1327
I1
sVvbp+vbz
p1328
I3
sVcc+rbs
p1329
I1
sVcc+rbr
p1330
I3
sVjjs+vbp
p1331
I1
sVvb+md
p1332
I1
sVrbr+vbp
p1333
I1
sVnnp+wrb
p1334
I2
sVnns+jjr
p1335
I16
sVrp+''
p1336
I1
sV(+cc
p1337
I3
sVrbr+vbz
p1338
I1
sVvbz+``
p1339
I27
sVvbp+rb
p1340
I185
sVjj+in
p1341
I349
sVrbr+vbd
p1342
I1
sVrbr+vbg
p1343
I2
sVrbr+vbn
p1344
I5
sVvbp+rp
p1345
I9
sVjj+rb
p1346
I17
sVprp+to
p1347
I33
sVvb+rbr
p1348
I19
sV,+in
p1349
I388
sVwrb+md
p1350
I1
sVNone+:
p1351
I6
sVrp+in
p1352
I23
sVnn+vb
p1353
I14
sVrbr+wrb
p1354
I1
sVjj+rp
p1355
I1
sVprp+md
p1356
I217
sVvbd+dt
p1357
I1
sVdt+cc
p1358
I4
sV(+md
p1359
I1
sVjjr+jj
p1360
I1
sVnn+wdt
p1361
I2
sVNone+to
p1362
I12
sVvbg+jj
p1363
I2
sV:+jj
p1364
I8
sVvbd+md
p1365
I2
sVvbp+dt
p1366
I1
sVls+)
p1367
I6
sVvbd+wrb
p1368
I7
sVcc+vb
p1369
I65
sVin+nn
p1370
I22
sV)+cc
p1371
I5
sVnn+dt
p1372
I1
sVvbg+rbr
p1373
I5
sV:+cd
p1374
I2
sVrbr+cc
p1375
I2
sVvbz+vbz
p1376
I4
sVnns+nns
p1377
I3
sVmd+.
p1378
I1
sVvbn+''
p1379
I7
sVmd+,
p1380
I3
sVnn+rbr
p1381
I8
sVvbz+vbn
p1382
I331
sVvbp+md
p1383
I2
sVvbz+vbd
p1384
I4
sVcc+wrb
p1385
I8
sVvbz+vbg
p1386
I117
sVin+nns
p1387
I1
sVin+nnp
p1388
I3
sVcc+nnp
p1389
I1
sVcc+nns
p1390
I5
sVvbz+jj
p1391
I76
sVnnp+:
p1392
I60
sVnn+wrb
p1393
I27
sV(+in
p1394
I9
sVnn+in
p1395
I3259
sVvbz+cc
p1396
I7
sVvbg+jjr
p1397
I3
sVjj+vbp
p1398
I4
sVin+rbr
p1399
I6
sVdt+''
p1400
I1
sV''+nn
p1401
I1
sVvbg+vbz
p1402
I1
sVvbd+vb
p1403
I8
sV:+cc
p1404
I25
sVto+wrb
p1405
I1
sVnns+(
p1406
I22
sVwrb+rbs
p1407
I1
sVcd+wdt
p1408
I3
sVnnp+(
p1409
I23
sVrb+rb
p1410
I198
sV``+nn
p1411
I3
sVnnps+:
p1412
I9
sVvb+cc
p1413
I22
sVvbp+jj
p1414
I50
sVnnps+,
p1415
I33
sVvbp+vb
p1416
I2
sVnnps+.
p1417
I21
sVnnps+(
p1418
I1
sVnnps+)
p1419
I1
sVnnp+,
p1420
I1444
sVwrb+jj
p1421
I3
sVdt+``
p1422
I56
sVuh+.
p1423
I1
sVwdt+vbd
p1424
I92
sVuh+,
p1425
I1
sVin+vbd
p1426
I9
sV:+md
p1427
I6
sVwdt+vbn
p1428
I1
sVmd+rbr
p1429
I1
sVnn+rb
p1430
I208
sVvbp+cc
p1431
I6
sV)+``
p1432
I1
sVwdt+vbp
p1433
I73
sVto+in
p1434
I12
sVjjs+in
p1435
I29
sVprp+rbr
p1436
I1
sVwdt+vbz
p1437
I129
sVcc+rb
p1438
I111
sV''+vbd
p1439
I52
sV''+vbg
p1440
I7
sV``+vbp
p1441
I10
sVrb+vb
p1442
I274
sV''+vbn
p1443
I4
sVin+jj
p1444
I7
sV''+vbp
p1445
I3
sVdt+rb
p1446
I63
sVcc+in
p1447
I119
sVvbd+``
p1448
I11
sV''+vbz
p1449
I89
sVvbg+vb
p1450
I1
sVjjr+''
p1451
I1
sVnnp+prp
p1452
I1
sVprp$+in
p1453
I1
sVvbd+in
p1454
I391
sVjj+)
p1455
I1
sVjj+(
p1456
I3
sVpos+,
p1457
I5
sVnns+vbz
p1458
I50
sVjjs+:
p1459
I1
sVpos+)
p1460
I1
sVwdt+to
p1461
I1
sVjjs+.
p1462
I5
sVnn+``
p1463
I37
sVjjs+,
p1464
I3
sVnn+vbg
p1465
I73
sVnn+vbd
p1466
I638
sVjj+''
p1467
I24
sVwp+vbd
p1468
I57
sVnn+vbn
p1469
I105
sVvbd+uh
p1470
I1
sVnns+vbp
p1471
I544
sVvb+''
p1472
I4
sVnnp+sym
p1473
I1
sVjj+cc
p1474
I97
sVnn+vbp
p1475
I52
sVcc+``
p1476
I12
sV:+to
p1477
I3
sVdt+jjs
p1478
I1
sVnn+vbz
p1479
I579
sV)+rb
p1480
I6
sVNone+vbg
p1481
I39
sVrb+wrb
p1482
I4
sV(+rb
p1483
I2
sVcd+''
p1484
I3
sVpos+nn
p1485
I3
sVcd+cc
p1486
I74
sVnn+''
p1487
I78
sVnnps+vbd
p1488
I10
sVnnps+vbz
p1489
I5
sVwp+vbp
p1490
I51
sVvbd+rp
p1491
I17
sVcd+jj
p1492
I1
sVpos+jjs
p1493
I1
sVwp+vbz
p1494
I61
sVnnps+vbp
p1495
I9
sVvbd+rb
p1496
I231
sVvbd+pdt
p1497
I1
sVls+:
p1498
I2
sVdt+dt
p1499
I2
sVNone+vbn
p1500
I25
sVjj+.
p1501
I134
sVvbp+''
p1502
I1
sVrb+''
p1503
I4
sVprp$+``
p1504
I2
sVnnp+vbz
p1505
I327
sVin+to
p1506
I33
sVvbp+rbr
p1507
I6
sV``+to
p1508
I5
sV''+vb
p1509
I4
sV:+rbr
p1510
I1
sV''+''
p1511
I5
sVjjr+to
p1512
I8
sVex+rb
p1513
I2
sV''+wrb
p1514
I1
sV:+in
p1515
I41
sVpos+''
p1516
I1
sVcc+vbn
p1517
I37
sV''+:
p1518
I4
sVcc+vbg
p1519
I33
sVvbd+rbr
p1520
I8
sVnns+vbn
p1521
I111
sVcc+vbz
p1522
I50
sVjj+nns
p1523
I2
sV''+)
p1524
I1
sVprp+jj
p1525
I7
sV''+.
p1526
I1
sVvbz+md
p1527
I1
sVprp$+jjr
p1528
I1
sVjj+wrb
p1529
I5
sVto+nn
p1530
I8
sVcd+.
p1531
I287
sVnn+ls
p1532
I1
sVNone+ls
p1533
I1
sV,+(
p1534
I2
sVwp+md
p1535
I13
sVrb+cc
p1536
I21
sVmd+to
p1537
I3
sV,+jjs
p1538
I3
sV''+md
p1539
I2
sVpos+in
p1540
I2
sVrb+to
p1541
I69
sVcd+:
p1542
I45
sVrb+jjr
p1543
I31
sVnn+:
p1544
I163
sVprp+rp
p1545
I4
sVnnps+nnp
p1546
I1
sVvb+rbs
p1547
I2
sVvb+to
p1548
I94
sVjjs+cc
p1549
I1
sVpos+rb
p1550
I4
sVnn+)
p1551
I22
sVnn+(
p1552
I20
sVnn+,
p1553
I1480
sVprp+rb
p1554
I85
sVnnp+vbn
p1555
I7
sVjjs+jj
p1556
I1
sVin+jjs
p1557
I5
sVNone+rb
p1558
I167
sVvbz+to
p1559
I116
sVto+jj
p1560
I1
sVnnps+to
p1561
I1
sVvbd+nnp
p1562
I2
sVvbn+to
p1563
I226
sVnnp+vbg
p1564
I7
sVnnp+vbd
p1565
I607
sVrb+rbr
p1566
I20
sVin+vbp
p1567
I2
sVnn+cc
p1568
I510
sVvbp+wrb
p1569
I2
sVto+vb
p1570
I1251
sVin+vbz
p1571
I3
sVnns+.
p1572
I767
sVnns+,
p1573
I732
sVjj+vbz
p1574
I8
sVnns+)
p1575
I11
sVnnps+cc
p1576
I17
sVjj+vbg
p1577
I8
sVnnp+)
p1578
I31
sVjj+vbd
p1579
I5
sVjjr+vbd
p1580
I1
sVin+vbg
p1581
I269
sVnnp+.
p1582
I488
sVjj+vbn
p1583
I3
sVin+vbn
p1584
I27
sVnns+:
p1585
I87
sVNone+vbp
p1586
I1
sVnn+nns
p1587
I29
sVNone+vbz
p1588
I8
sVcc+jj
p1589
I8
sVNone+vbd
p1590
I2
sVnns+vbd
p1591
I458
sVnns+vbg
p1592
I75
sVcc+jjr
p1593
I4
sVjj+jjr
p1594
I1
sVNone+``
p1595
I288
sVdt+nnp
p1596
I3
sVcd+(
p1597
I9
sVcd+)
p1598
I30
sVwdt+rbr
p1599
I1
sVcd+,
p1600
I333
sVprp$+vbz
p1601
I1
sV(+jjr
p1602
I1
sVpos+``
p1603
I6
sVprp$+vbg
p1604
I2
sVjj+rbr
p1605
I1
sVcc+cc
p1606
I1
sVrbs+in
p1607
I2
sVprp$+vbn
p1608
I1
sVvbz+in
p1609
I193
sVvbn+vbp
p1610
I2
sVcc+jjs
p1611
I1
sVdt+jj
p1612
I6
sVrb+vbp
p1613
I88
sVcd+``
p1614
I2
sVvbn+vbz
p1615
I1
sVrb+vbz
p1616
I109
sV``+jj
p1617
I4
sVrb+vbg
p1618
I97
sVrb+vbd
p1619
I184
sVvbn+vbd
p1620
I6
sVvbn+vbn
p1621
I56
sVvbd+''
p1622
I1
sVls+.
p1623
I5
sVrb+vbn
p1624
I286
sVnnp+vbp
p1625
I34
stRp1626
sg65
I1001
sg66
F43269.5
sbs(g15
g849
tp1627
g1
(g21
g3
NtRp1628
(dp1629
g24
F0.5
sg25
I26764
sg26
g27
((dp1630
g854
I26541
sg855
I200
sg856
I23
stRp1631
sg65
I3
sg66
F26765.5
sbs(VO
g19
tp1632
g1
(g21
g3
NtRp1633
(dp1634
g24
F0.5
sg25
I42769
sg26
g27
((dp1635
Vvb
p1636
I2508
sVcc
p1637
I2258
sVjjs
p1638
I19
sVjjr
p1639
I172
sVcd
p1640
I2
sg95
I701
sVvbn
p1641
I1967
sVprp
p1642
I2
sVin
p1643
I9944
sVnns
p1644
I54
sVnnp
p1645
I31
sV#
I5
sVwrb
p1646
I176
sVnn
p1647
I349
sV)
I128
sV(
I119
sV,
I4889
sV.
I3873
sVto
p1648
I2179
sVls
p1649
I2
sVrb
p1650
I2746
sV:
I470
sg288
I714
sVfw
p1651
I1
sVsym
p1652
I1
sVpos
p1653
I17
sVjj
p1654
I657
sVrp
p1655
I105
sVdt
p1656
I12
sVmd
p1657
I925
sVvbg
p1658
I1235
sVvbd
p1659
I3017
sVpdt
p1660
I1
sVrbs
p1661
I12
sVrbr
p1662
I110
sVvbp
p1663
I1290
sVwdt
p1664
I10
sVuh
p1665
I2
sVvbz
p1666
I2066
stRp1667
sg65
I46
sg66
F42792
sbs(g16
g440
tp1668
g1
(g21
g3
NtRp1669
(dp1670
g24
F0.5
sg25
I24667
sg26
g27
((dp1671
VNone+jjs
p1672
I2
sVNone+jjr
p1673
I6
sVwdt+nns
p1674
I1
sVprp+nnp
p1675
I1
sV,+vbz
p1676
I3
sVprp+nns
p1677
I1
sVvbg+dt
p1678
I269
sVvbz+nn
p1679
I79
sV,+vbp
p1680
I4
sVvbn+nn
p1681
I67
sVwdt+nnp
p1682
I4
sVvbg+vbg
p1683
I3
sV``+wp
p1684
I6
sV,+vbd
p1685
I1
sV,+nnps
p1686
I2
sVvbg+vbn
p1687
I5
sVvbz+wp
p1688
I3
sVex+vbd
p1689
I1
sV''+jjs
p1690
I1
sVto+jj
p1691
I61
sVto+nnp
p1692
I88
sVto+nns
p1693
I63
sVvb+cd
p1694
I56
sVnnp+pos
p1695
I7
sVvbp+nns
p1696
I32
sVvbp+nnp
p1697
I30
sVjjr+nn
p1698
I1
sVNone+vb
p1699
I3
sV(+nnp
p1700
I40
sV(+nns
p1701
I3
sV,+wp$
p1702
I5
sVvbd+cd
p1703
I157
sVcc+prp
p1704
I98
sVvbp+vbg
p1705
I2
sV''+prp$
p1706
I1
sVvbn+wp
p1707
I4
sV,+dt
p1708
I658
sVvbp+vbn
p1709
I1
sVrb+in
p1710
I1
sVcc+nn
p1711
I259
sVnn+jj
p1712
I4
sVwrb+prp
p1713
I28
sVprp+wp
p1714
I2
sV(+jj
p1715
I1
sVcc+rbr
p1716
I1
sVin+$
p1717
I267
sV:+ls
p1718
I5
sV,+prp$
p1719
I14
sV,+nnp
p1720
I668
sV)+wdt
p1721
I1
sV,+nns
p1722
I128
sVvbd+jj
p1723
I92
sVrp+$
p1724
I1
sV,+vbn
p1725
I2
sV(+cd
p1726
I8
sVvbd+jjr
p1727
I11
sVvbd+jjs
p1728
I1
sVvbp+pdt
p1729
I1
sVnns+cd
p1730
I3
sV``+vbg
p1731
I5
sVin+prp$
p1732
I339
sVcc+$
p1733
I45
sVjjs+rb
p1734
I1
sVvb+rbr
p1735
I1
sVto+rb
p1736
I1
sV:+wdt
p1737
I1
sVrp+in
p1738
I1
sV)+prp
p1739
I1
sVvb+ex
p1740
I1
sVvbg+prp
p1741
I41
sVin+wp
p1742
I21
sVin+nnps
p1743
I19
sVnns+dt
p1744
I81
sVvbd+dt
p1745
I502
sVNone+wdt
p1746
I2
sVNone+ex
p1747
I18
sVvb+jj
p1748
I160
sV,+fw
p1749
I1
sVnn+wdt
p1750
I109
sVnns+wp
p1751
I53
sVNone+cd
p1752
I29
sVvbg+jj
p1753
I96
sVin+wdt
p1754
I35
sVvbz+ex
p1755
I2
sV:+jj
p1756
I16
sVto+prp
p1757
I11
sVwrb+dt
p1758
I56
sVwp+prp
p1759
I13
sVvbp+dt
p1760
I169
sV:+nns
p1761
I14
sV:+nnp
p1762
I105
sVvb+prp
p1763
I91
sV''+nnp
p1764
I93
sV)+cd
p1765
I2
sV``+prp$
p1766
I3
sVvbg+jjr
p1767
I19
sVcc+vb
p1768
I9
sVvbg+rbs
p1769
I1
sVNone+dt
p1770
I865
sV)+jj
p1771
I2
sVnn+prp
p1772
I56
sVnn+dt
p1773
I92
sVvbz+cd
p1774
I37
sV:+cd
p1775
I53
sVcd+wdt
p1776
I3
sV``+nn
p1777
I68
sVto+dt
p1778
I284
sVrbr+dt
p1779
I7
sVdt+wp
p1780
I7
sVnn+rbr
p1781
I1
sVprp+nn
p1782
I4
sV``+jjr
p1783
I1
sVin+ex
p1784
I10
sVvbg+pdt
p1785
I1
sVdt+nn
p1786
I4
sV''+wp
p1787
I1
sVcc+dt
p1788
I256
sVcc+nnp
p1789
I353
sVcc+nns
p1790
I155
sVvbz+jj
p1791
I69
sVNone+''
p1792
I7
sVvbn+rbr
p1793
I1
sVwrb+cd
p1794
I3
sVcd+wp
p1795
I2
sV:+ex
p1796
I1
sVprp+prp
p1797
I5
sVvbz+nnp
p1798
I135
sVrb+prp
p1799
I10
sVvbz+nns
p1800
I27
sVvbn+prp
p1801
I15
sVwdt+dt
p1802
I9
sVrb+wdt
p1803
I4
sVvb+prp$
p1804
I99
sVNone+nnp
p1805
I729
sV``+nns
p1806
I23
sV,+wp
p1807
I56
sV``+nnp
p1808
I45
sVnns+wdt
p1809
I83
sVcc+wdt
p1810
I2
sV,+jjr
p1811
I8
sV,+jjs
p1812
I3
sVin+rbr
p1813
I3
sVin+nn
p1814
I1058
sVnns+jj
p1815
I2
sV:+prp$
p1816
I1
sVvbz+pdt
p1817
I1
sVmd+nnp
p1818
I1
sV''+nn
p1819
I30
sVvbn+$
p1820
I24
sVcc+prp$
p1821
I34
sVNone+ls
p1822
I4
sVrp+prp$
p1823
I8
sVvbg+cd
p1824
I30
sVmd+nns
p1825
I1
sVvbd+vb
p1826
I2
sV(+prp
p1827
I3
sVpos+jj
p1828
I1
sVvbn+:
p1829
I2
sVvbz+jjr
p1830
I2
sVvbn+prp$
p1831
I28
sVnnp+(
p1832
I1
sVrb+rb
p1833
I2
sVrb+pdt
p1834
I1
sVmd+jj
p1835
I1
sVNone+jj
p1836
I133
sVprp+dt
p1837
I17
sVwp+dt
p1838
I10
sVwrb+jj
p1839
I15
sVrb+ex
p1840
I2
sVwdt+vbd
p1841
I1
sVNone+nnps
p1842
I10
sV,+ex
p1843
I19
sV``+ex
p1844
I15
sVrb+nn
p1845
I30
sVvbp+:
p1846
I1
sVvbp+$
p1847
I3
sVvb+in
p1848
I2
sVvbp+cd
p1849
I9
sVNone+vbz
p1850
I3
sV,+rb
p1851
I3
sVdt+vbg
p1852
I2
sV``+dt
p1853
I126
sVwdt+vbz
p1854
I3
sVcc+rb
p1855
I1
sV''+vbg
p1856
I1
sVvb+nn
p1857
I155
sVcd+dt
p1858
I91
sVnnp+wp
p1859
I6
sVjj+nn
p1860
I15
sVwdt+jj
p1861
I5
sVin+jj
p1862
I941
sVnns+:
p1863
I4
sVjj+prp
p1864
I3
sVin+pdt
p1865
I9
sVvbg+nn
p1866
I63
sVwp+prp$
p1867
I3
sV(+$
p1868
I21
sV''+vbz
p1869
I2
sVNone+rbr
p1870
I1
sVrb+wp
p1871
I4
sVvbp+prp$
p1872
I14
sVnnp+prp
p1873
I5
sVvbn+nnp
p1874
I38
sVwrb+prp$
p1875
I3
sVNone+prp
p1876
I223
sVvb+wp$
p1877
I1
sVvb+wp
p1878
I7
sVvbd+in
p1879
I5
sVvbg+nnp
p1880
I40
sVvbg+nns
p1881
I96
sVjj+wp
p1882
I1
sVpdt+dt
p1883
I2
sVNone+prp$
p1884
I29
sVvbd+rb
p1885
I3
sVvb+pdt
p1886
I7
sVvbd+pdt
p1887
I1
sVto+jjr
p1888
I8
sVin+nns
p1889
I615
sV)+nn
p1890
I5
sVvb+vbn
p1891
I2
sVcc+vbg|nn
p1892
I1
sVrp+nns
p1893
I7
sVvbz+prp$
p1894
I25
sV``+rb
p1895
I3
sVvbp+ex
p1896
I1
sVnn+vbd
p1897
I1
sVnn+prp$
p1898
I1
sVdt+wdt
p1899
I3
sVnns+nn
p1900
I1
sVcc+wp
p1901
I4
sV#+cd
p1902
I5
sVjj+cd
p1903
I3
sV``+prp
p1904
I133
sVNone+:
p1905
I4
sVrb+nns
p1906
I13
sVrp+cd
p1907
I2
sVrb+nnp
p1908
I9
sVnn+vbz
p1909
I2
sVnn+wp$
p1910
I1
sVNone+vbg
p1911
I4
sVNone+pdt
p1912
I3
sVjj+nnp
p1913
I2
sVvbn+nns
p1914
I35
sVcc+jjs
p1915
I4
sVcc+jjr
p1916
I20
sVnn+ex
p1917
I1
sV:+dt
p1918
I51
sVvb+vbg
p1919
I4
sVin+dt
p1920
I3157
sV,+prp
p1921
I191
sVvbz+jjs
p1922
I1
sVrp+dt
p1923
I25
sVvbp+jj
p1924
I56
sVto+nn
p1925
I53
sVcd+jj
p1926
I2
sVwp+vbz
p1927
I1
sVcc+in
p1928
I1
sVwdt+prp
p1929
I17
sVnnp+nn
p1930
I1
sV''+wp$
p1931
I1
sV,+ls
p1932
I1
sVdt+dt
p1933
I3
sVNone+vbn
p1934
I2
sV''+jj
p1935
I6
sVNone+wp
p1936
I13
sVvbp+prp
p1937
I44
sVNone+nn
p1938
I163
sVpos+wp
p1939
I1
sVsym+nnp
p1940
I1
sVvbg+wp
p1941
I3
sVto+prp$
p1942
I33
sVvbd+$
p1943
I42
sVmd+vb
p1944
I1
sVvbd+(
p1945
I1
sVwdt+cd
p1946
I2
sVin+cc
p1947
I1
sVin+cd
p1948
I623
sVrb+jj
p1949
I88
sVvbz+``
p1950
I1
sVin+jjr
p1951
I45
sVin+jjs
p1952
I37
sVvbp+rb
p1953
I2
sVvbd+wp
p1954
I2
sVNone+nns
p1955
I171
sVin+#
p1956
I9
sV:+prp
p1957
I16
sVdt+nns
p1958
I23
sVcd+prp
p1959
I3
sVvb+wdt
p1960
I2
sVcc+nnps
p1961
I5
sVjj+jj
p1962
I6
sVcc+vbn
p1963
I1
sVvbp+wp
p1964
I2
sVvbn+dt
p1965
I137
sV''+:
p1966
I1
sVcc+vbg
p1967
I22
sVvb+rp
p1968
I1
sV,+wdt
p1969
I174
sVvbd+rbr
p1970
I2
sVnnp+nns
p1971
I4
sVnnp+nnp
p1972
I17
sVprp+wdt
p1973
I1
sVvb+jjs
p1974
I3
sVvb+jjr
p1975
I10
sVcc+vbz
p1976
I2
sVjj+nns
p1977
I10
sVwrb+nn
p1978
I11
sVvbg+$
p1979
I9
sVin+fw
p1980
I1
sVcc+vbp
p1981
I1
sVwp+nnp
p1982
I3
sV``+vb
p1983
I2
sV,+nn
p1984
I215
sV)+dt
p1985
I8
sVwrb+vbp
p1986
I1
sVjjr+dt
p1987
I6
sV)+nnp
p1988
I3
sVrp+jj
p1989
I5
sVjjs+dt
p1990
I1
sVvbn+vbg
p1991
I3
sVnn+wp
p1992
I35
sVvbz+prp
p1993
I55
sVvbg+rb
p1994
I4
sVvb+rb
p1995
I2
sVvb+$
p1996
I27
sV''+(
p1997
I1
sVvbp+wdt
p1998
I1
sV,+rbr
p1999
I1
sV,+rbs
p2000
I1
sVvbd+ex
p2001
I4
sVto+#
p2002
I1
sVrb+cd
p2003
I94
sVto+$
p2004
I78
sVprp+cd
p2005
I1
sVvb+:
p2006
I2
sVjjs+nnps
p2007
I1
sV''+wdt
p2008
I8
sVvbp+jjr
p2009
I6
sVmd+prp
p2010
I1
sV)+:
p2011
I1
sV:+wp
p2012
I5
sVwrb+ex
p2013
I1
sVin+in
p2014
I1
sVNone+rb
p2015
I8
sVvbd+nn
p2016
I93
sVprp+vbg
p2017
I1
sV,+''
p2018
I2
sVrb+jjr
p2019
I9
sVnnp+nnps
p2020
I2
sVrb+prp$
p2021
I5
sVnnp+jj
p2022
I3
sVnn+:
p2023
I2
sVprp+vbd
p2024
I3
sVprp+vbz
p2025
I5
sVvbz+$
p2026
I12
sVcc+ls
p2027
I1
sVvbz+:
p2028
I1
sVrb+dt
p2029
I150
sVvbp+nn
p2030
I33
sVvbn+jj
p2031
I83
sVprp+vbp
p2032
I1
sVwp+cd
p2033
I1
sVin+nnp
p2034
I1469
sVto+cd
p2035
I160
sVprp+rb
p2036
I1
sVrb+$
p2037
I22
sV``+cd
p2038
I1
sVvbg+nnps
p2039
I1
sVjj+dt
p2040
I19
sVcc+ex
p2041
I12
sVnn+nn
p2042
I18
sVrb+:
p2043
I2
sVvb+dt
p2044
I603
sVvbg+prp$
p2045
I37
sVvbn+cd
p2046
I17
sVto+vbg
p2047
I6
sV:+$
p2048
I7
sVvbd+nns
p2049
I73
sVvbd+nnp
p2050
I187
sVwp+jj
p2051
I1
sVto+vbn
p2052
I3
sVvbz+dt
p2053
I338
sVnn+pos
p2054
I2
sV:+:
p2055
I1
sVnnp+cd
p2056
I1
sVwp+pos
p2057
I1
sV''+nns
p2058
I24
sVdt+cd
p2059
I2
sVfw+nn
p2060
I1
sVrb+rbr
p2061
I1
sVvb+vb
p2062
I1
sVnn+cd
p2063
I1
sVto+vb
p2064
I9
sVnn+in
p2065
I3
sVnnp+,
p2066
I1
sVin+vbg
p2067
I35
sVin+vbd
p2068
I1
sVvbd+prp$
p2069
I70
sVin+vbn
p2070
I29
sVdt+prp
p2071
I5
sVrb+vb
p2072
I11
sVwrb+nnp
p2073
I13
sVwrb+nns
p2074
I12
sV''+prp
p2075
I68
sVvbn+jjr
p2076
I2
sVnn+nns
p2077
I28
sV,+$
p2078
I51
sVvbd+#
p2079
I1
sVnns+vbp
p2080
I1
sVcc+jj
p2081
I229
sV``+uh
p2082
I1
sVjjs+prp
p2083
I1
sVNone+vbd
p2084
I1
sVmd+vbg
p2085
I1
sVnnp+dt
p2086
I22
sVwrb+pdt
p2087
I1
sVvb+nnps
p2088
I2
sVvbd+prp
p2089
I203
sVrp+nn
p2090
I3
sVdt+nnp
p2091
I1
sVmd+dt
p2092
I5
sV:+nn
p2093
I14
sV(+nn
p2094
I6
sVin+rb
p2095
I10
sV(+jjr
p2096
I1
sVin+wp$
p2097
I1
sVvbz+rb
p2098
I1
sVcc+cd
p2099
I94
sVrb+vbn
p2100
I2
sVvbz+in
p2101
I3
sV,+jj
p2102
I193
sVvb+nns
p2103
I110
sVnnp+wdt
p2104
I5
sVvb+nnp
p2105
I87
sVvbp+in
p2106
I3
sVrb+nnps
p2107
I1
sVdt+jj
p2108
I2
sVrb+vbp
p2109
I1
sV''+dt
p2110
I65
sV,+cd
p2111
I117
sV(+dt
p2112
I10
sVwp+rbs
p2113
I1
sV``+jj
p2114
I77
sVvbg+in
p2115
I1
sVin+prp
p2116
I320
sVcc+vbd
p2117
I1
sVcd+wp$
p2118
I1
sVnns+prp
p2119
I12
sVnnp+vbp
p2120
I1
stRp2121
sg65
I1001
sg66
F25167.5
sbs(VO
Vprevtag+word
p2122
tp2123
g1
(g21
g3
NtRp2124
(dp2125
g24
F0.5
sg25
I42769
sg26
g27
((dp2126
VNone+jjs
p2127
I3
sVNone+jjr
p2128
I6
sVNone+)
p2129
I17
sVNone+(
p2130
I18
sVI-NP+wrb
p2131
I29
sVI-NP+jjs
p2132
I1
sVI-NP+jjr
p2133
I41
sVO+wdt
p2134
I1
sVNone+:
p2135
I6
sVNone+vbg
p2136
I39
sVNone+md
p2137
I1
sVO+``
p2138
I290
sVO+nns
p2139
I11
sVO+nnp
p2140
I18
sVI-NP+''
p2141
I84
sVB-NP+nn
p2142
I133
sVI-NP+cc
p2143
I925
sVNone+vbn
p2144
I25
sVB-NP+wdt
p2145
I2
sVNone+nn
p2146
I8
sVI-NP+wdt
p2147
I7
sVI-NP+rbs
p2148
I1
sVI-NP+rbr
p2149
I17
sVO+cd
p2150
I2
sVO+cc
p2151
I675
sVO+''
p2152
I296
sVB-NP+rp
p2153
I10
sVI-NP+ls
p2154
I1
sVI-NP+dt
p2155
I1
sVB-NP+rb
p2156
I291
sVB-NP+in
p2157
I1503
sVO+wrb
p2158
I105
sVNone+``
p2159
I288
sVI-NP+)
p2160
I57
sVI-NP+(
p2161
I70
sVI-NP+fw
p2162
I1
sVI-NP+.
p2163
I2316
sVI-NP+,
p2164
I2958
sVB-NP+pos
p2165
I7
sVNone+to
p2166
I12
sVB-NP+nnp
p2167
I6
sVI-NP+:
p2168
I273
sVB-NP+nns
p2169
I8
sVNone+cc
p2170
I189
sVI-NP+rb
p2171
I353
sVI-NP+vbz
p2172
I796
sVI-NP+vbp
p2173
I488
sVO+vb
p2174
I2429
sVI-NP+rp
p2175
I5
sVI-NP+vbn
p2176
I193
sVNone+wrb
p2177
I25
sVI-NP+md
p2178
I391
sVI-NP+vbd
p2179
I1388
sVI-NP+vbg
p2180
I110
sVI-NP+jj
p2181
I95
sVNone+ls
p2182
I1
sVI-NP+to
p2183
I722
sVNone+uh
p2184
I1
sVB-NP+``
p2185
I81
sVI-NP+prp
p2186
I1
sVB-NP+cc
p2187
I469
sVNone+''
p2188
I246
sVB-NP+to
p2189
I286
sVO+dt
p2190
I6
sVO+uh
p2191
I1
sVNone+nnp
p2192
I3
sVO+in
p2193
I3776
sVI-NP+pos
p2194
I9
sVNone+vb
p2195
I16
sVNone+rb
p2196
I167
sVNone+in
p2197
I478
sVO+vbg
p2198
I994
sVNone+dt
p2199
I3
sVO+pdt
p2200
I1
sVB-NP+''
p2201
I75
sVO+vbd
p2202
I658
sVB-NP+vbg
p2203
I92
sVB-NP+jj
p2204
I41
sVO+to
p2205
I1159
sVB-NP+:
p2206
I100
sVO+pos
p2207
I1
sVNone+jj
p2208
I8
sVO+jjs
p2209
I12
sVO+jjr
p2210
I112
sVI-NP+sym
p2211
I1
sVB-NP+(
p2212
I13
sVB-NP+)
p2213
I48
sVB-NP+.
p2214
I729
sVB-NP+,
p2215
I1197
sVO+vbn
p2216
I1684
sVB-NP+vb
p2217
I28
sVO+jj
p2218
I513
sVB-NP+md
p2219
I394
sVB-NP+jjr
p2220
I13
sVB-NP+jjs
p2221
I3
sVO+vbz
p2222
I451
sVO+vbp
p2223
I181
sVNone+vbp
p2224
I1
sVO+:
p2225
I91
sVI-NP+in
p2226
I4187
sVO+rbs
p2227
I7
sVO+rbr
p2228
I86
sVO+#
p2229
I5
sVNone+vbd
p2230
I2
sVO+nn
p2231
I128
sVO+)
p2232
I6
sVO+(
p2233
I18
sVB-NP+wrb
p2234
I17
sVO+,
p2235
I734
sVO+.
p2236
I828
sVNone+rbs
p2237
I2
sVNone+rbr
p2238
I2
sVO+rb
p2239
I1935
sVNone+vbz
p2240
I8
sVB-NP+rbr
p2241
I5
sVB-NP+rbs
p2242
I2
sVNone+prp
p2243
I1
sVI-NP+``
p2244
I55
sVO+rp
p2245
I90
sVO+md
p2246
I139
sVB-NP+vbd
p2247
I969
sVB-NP+dt
p2248
I2
sVI-NP+nn
p2249
I80
sVB-NP+vbn
p2250
I65
sVB-NP+vbp
p2251
I620
sVI-NP+nnp
p2252
I4
sVI-NP+nns
p2253
I35
sVI-NP+vb
p2254
I35
sVB-NP+vbz
p2255
I811
stRp2256
sg65
I163
sg66
F42850.5
sbs(g16
g85
tp2257
g1
(g21
g3
NtRp2258
(dp2259
g24
F0.5
sg25
I24667
sg26
g27
((dp2260
Vvb
p2261
I490
sVcc
p2262
I355
sVjjs
p2263
I34
sVjjr
p2264
I138
sVcd
p2265
I724
sg717
I265
sVvbn
p2266
I879
sVex
p2267
I53
sVin
p2268
I700
sVwp$
p2269
I2
sVnns
p2270
I2513
sVnnp
p2271
I2337
sVnnps
p2272
I76
sVrp
p2273
I32
sV$
I81
sVnn
p2274
I5119
sV)
I41
sV(
I11
sV,
I1337
sVto
p2275
I838
sVls
p2276
I3
sVrb
p2277
I1021
sV:
I100
sg729
I116
sVpos
p2278
I30
sVjj
p2279
I705
sVwp
p2280
I83
sVwrb
p2281
I19
sVdt
p2282
I378
sVmd
p2283
I326
sVprp$
p2284
I18
sVvbg
p2285
I318
sVvbd
p2286
I632
sVrbs
p2287
I3
sVrbr
p2288
I42
sVvbp
p2289
I300
sVwdt
p2290
I140
sVuh
p2291
I2
sVvbz
p2292
I475
sNI3492
sVprp
p2293
I439
stRp2294
sg65
I47
sg66
F24690.5
sbs(g16
g74
tp2295
g1
(g21
g3
NtRp2296
(dp2297
g24
F0.5
sg25
I24667
sg26
g27
((dp2298
V#
I11
sV'
I9
sVz
I21
sV$
I1366
sV`
I1
sVc
I1
sVb
I80
sVd
I1521
sVg
I89
sV(
I3
sVj
I2350
sV,
I1
sVn
I2519
sVp
I6083
sVs
I1788
sVr
I160
sVt
I8553
sVw
I2
sVh
I1
sVx
I87
sV:
I21
stRp2299
sg65
I25
sg66
F24679.5
sbs(g15
g19
tp2300
g1
(g21
g3
NtRp2301
(dp2302
g24
F0.5
sg25
I26764
sg26
g27
((dp2303
Vvb
p2304
I10
sVcc
p2305
I9
sVjjs
p2306
I111
sVjjr
p2307
I64
sVcd
p2308
I2037
sg867
I4
sVvbn
p2309
I122
sVprp
p2310
I42
sVin
p2311
I5
sVwp$
p2312
I4
sVnns
p2313
I4327
sVnnp
p2314
I5235
sVwrb
p2315
I2
sV$
I115
sVnn
p2316
I10382
sV.
I1
sVto
p2317
I1
sVrb
p2318
I42
sV:
I80
sVfw
p2319
I1
sVpos
p2320
I797
sVrp$
p2321
I19
sVjj
p2322
I2832
sVwp
p2323
I3
sVrp
p2324
I1
sVdt
p2325
I63
sVnps
p2326
I201
sVmd
p2327
I2
sVvbg
p2328
I135
sVvbd
p2329
I17
sVpdt
p2330
I1
sVrbs
p2331
I20
sVrbr
p2332
I14
sVvbp
p2333
I23
sVwdt
p2334
I1
sVvbz
p2335
I40
sVex
p2336
I1
stRp2337
sg65
I46
sg66
F26787
sbs(g15
Vword.lower
p2338
tp2339
g1
(g21
g3
NtRp2340
(dp2341
g24
F0.5
sg25
I26764
sg26
g27
((dp2342
Vvb
p2343
I10
sVcc
p2344
I9
sVjjs
p2345
I111
sVjjr
p2346
I64
sVcd
p2347
I2037
sg867
I4
sVvbn
p2348
I122
sVprp
p2349
I42
sVin
p2350
I5
sVwp$
p2351
I4
sVnns
p2352
I4327
sVnnp
p2353
I5235
sVnnps
p2354
I201
sVwrb
p2355
I2
sV$
I115
sVnn
p2356
I10382
sV.
I1
sVto
p2357
I1
sVrb
p2358
I42
sV:
I80
sVfw
p2359
I1
sVpos
p2360
I797
sVjj
p2361
I2832
sVwp
p2362
I3
sVrp
p2363
I1
sVdt
p2364
I63
sVmd
p2365
I2
sVprp$
p2366
I19
sVvbg
p2367
I135
sVvbd
p2368
I17
sVpdt
p2369
I1
sVrbs
p2370
I20
sVrbr
p2371
I14
sVvbp
p2372
I23
sVwdt
p2373
I1
sVvbz
p2374
I40
sVex
p2375
I1
stRp2376
sg65
I46
sg66
F26787
sbs(g15
g2122
tp2377
g1
(g21
g3
NtRp2378
(dp2379
g24
F0.5
sg25
I26764
sg26
g27
((dp2380
VB-NP+cc
p2381
I3
sVB-NP+cd
p2382
I1179
sVI-NP+jjs
p2383
I24
sVI-NP+jjr
p2384
I7
sVI-NP+wp
p2385
I2
sVI-NP+wrb
p2386
I2
sVI-NP+pos
p2387
I524
sVB-NP+md
p2388
I1
sVI-NP+vbg
p2389
I50
sVB-NP+''
p2390
I2
sVI-NP+jj
p2391
I642
sVI-NP+''
p2392
I2
sVB-NP+nn
p2393
I5995
sVI-NP+nnps
p2394
I65
sVI-NP+cd
p2395
I858
sVB-NP+vbg
p2396
I85
sVI-NP+cc
p2397
I6
sVB-NP+jj
p2398
I2190
sVB-NP+wp
p2399
I1
sVB-NP+pdt
p2400
I1
sVB-NP+fw
p2401
I1
sVB-NP+wp$
p2402
I1
sVB-NP+:
p2403
I18
sVI-NP+wdt
p2404
I1
sVI-NP+rbs
p2405
I2
sVB-NP+$
p2406
I86
sVI-NP+to
p2407
I1
sVB-NP+nnps
p2408
I136
sVB-NP+vb
p2409
I1
sVI-NP+prp$
p2410
I5
sVB-NP+jjr
p2411
I57
sVB-NP+jjs
p2412
I87
sVI-NP+dt
p2413
I21
sVB-NP+rb
p2414
I23
sVB-NP+in
p2415
I1
sVB-NP+prp
p2416
I10
sVI-NP+$
p2417
I29
sVB-NP+ex
p2418
I1
sVI-NP+in
p2419
I4
sVB-NP+pos
p2420
I273
sVB-NP+nnp
p2421
I3269
sVI-NP+:
p2422
I62
sVB-NP+nns
p2423
I2674
sVI-NP+rb
p2424
I19
sVI-NP+vbz
p2425
I28
sVI-NP+vbp
p2426
I17
sVB-NP+rbr
p2427
I14
sVB-NP+rbs
p2428
I18
sVI-NP+rp
p2429
I1
sVI-NP+vbn
p2430
I26
sVI-NP+md
p2431
I1
sVI-NP+vbd
p2432
I14
sVI-NP+wp$
p2433
I3
sVB-NP+vbd
p2434
I3
sVI-NP+.
p2435
I1
sVB-NP+dt
p2436
I42
sVI-NP+nn
p2437
I4387
sVB-NP+vbn
p2438
I96
sVB-NP+prp$
p2439
I14
sVB-NP+vbp
p2440
I6
sVI-NP+nnp
p2441
I1966
sVI-NP+nns
p2442
I1653
sVI-NP+vb
p2443
I9
sVB-NP+vbz
p2444
I12
sVI-NP+prp
p2445
I32
stRp2446
sg65
I163
sg66
F26845.5
sbs(g15
g929
tp2447
g1
(g21
g3
NtRp2448
(dp2449
g24
F0.5
sg25
I26764
sg26
g27
((dp2450
VI-NP
p2451
I10464
sg16
I16300
stRp2452
sg65
I4
sg66
F26766
sbs(g15
g126
tp2453
g1
(g21
g3
NtRp2454
(dp2455
g24
F0.5
sg25
I26764
sg26
g27
((dp2456
VNone+jjs
p2457
I9
sVNone+jjr
p2458
I5
sVO+vbg
p2459
I72
sVI-NP+wrb
p2460
I1
sVB-NP+cc
p2461
I1
sVNone+$
p2462
I11
sVI-NP+jjs
p2463
I15
sVI-NP+jjr
p2464
I4
sVO+dt
p2465
I38
sVNone+nnps
p2466
I28
sVNone+nns
p2467
I211
sVI-NP+fw
p2468
I1
sVNone+nnp
p2469
I642
sVB-NP+vbg
p2470
I32
sVI-NP+wp
p2471
I1
sVNone+vbg
p2472
I10
sVB-NP+cd
p2473
I642
sVI-NP+pos
p2474
I119
sVNone+rb
p2475
I1
sVO+md
p2476
I1
sVB-NP+md
p2477
I1
sVI-NP+wp$
p2478
I2
sVO+pdt
p2479
I1
sVO+nns
p2480
I2444
sVB-NP+''
p2481
I2
sVO+nnp
p2482
I2597
sVO+$
p2483
I75
sVB-NP+vbd
p2484
I8
sVB-NP+jjs
p2485
I11
sVB-NP+nn
p2486
I2898
sVI-NP+nnps
p2487
I25
sVO+nnps
p2488
I107
sVNone+dt
p2489
I4
sVI-NP+cd
p2490
I218
sVB-NP+prp$
p2491
I4
sVNone+rbs
p2492
I2
sVI-NP+cc
p2493
I5
sVB-NP+jj
p2494
I380
sVB-NP+wp
p2495
I1
sVNone+cd
p2496
I33
sVNone+nn
p2497
I490
sVB-NP+wp$
p2498
I1
sVB-NP+:
p2499
I33
sVI-NP+wdt
p2500
I1
sVO+pos
p2501
I233
sVI-NP+rbs
p2502
I2
sVO+jjs
p2503
I76
sVO+jjr
p2504
I52
sVO+cd
p2505
I1144
sVO+cc
p2506
I3
sVB-NP+$
p2507
I22
sVI-NP+to
p2508
I1
sVO+''
p2509
I2
sVB-NP+nnps
p2510
I41
sVO+vbz
p2511
I9
sVO+vbn
p2512
I84
sVB-NP+vb
p2513
I4
sVB-NP+rp
p2514
I1
sVO+prp$
p2515
I14
sVNone+rbr
p2516
I2
sVI-NP+prp$
p2517
I1
sVO+prp
p2518
I8
sVB-NP+jjr
p2519
I3
sVO+vbd
p2520
I1
sVI-NP+dt
p2521
I14
sVNone+jj
p2522
I144
sVB-NP+rb
p2523
I10
sVNone+vbz
p2524
I3
sVO+wp
p2525
I1
sVO+nn
p2526
I5221
sVO+vbp
p2527
I5
sVNone+vbn
p2528
I10
sVB-NP+prp
p2529
I21
sVO+jj
p2530
I2016
sVI-NP+$
p2531
I7
sVO+:
p2532
I18
sVI-NP+in
p2533
I3
sVO+rbs
p2534
I16
sVO+rbr
p2535
I12
sVB-NP+pos
p2536
I407
sVNone+vbd
p2537
I2
sVB-NP+in
p2538
I1
sVB-NP+nnp
p2539
I1229
sVI-NP+:
p2540
I29
sVB-NP+nns
p2541
I1096
sVO+wp$
p2542
I1
sVI-NP+rb
p2543
I16
sVNone+pos
p2544
I38
sVI-NP+vbz
p2545
I10
sVO+rb
p2546
I15
sVI-NP+vbp
p2547
I4
sVO+vb
p2548
I1
sVB-NP+wrb
p2549
I1
sVNone+prp
p2550
I2
sVI-NP+vbn
p2551
I10
sVO+ex
p2552
I1
sVO+in
p2553
I1
sVI-NP+vbd
p2554
I6
sVI-NP+vbg
p2555
I21
sVI-NP+jj
p2556
I292
sVB-NP+dt
p2557
I7
sVI-NP+nn
p2558
I1773
sVB-NP+.
p2559
I1
sVB-NP+vbn
p2560
I18
sVB-NP+vbp
p2561
I14
sVI-NP+nnp
p2562
I767
sVI-NP+nns
p2563
I576
sVI-NP+vb
p2564
I5
sVB-NP+vbz
p2565
I18
sVI-NP+prp
p2566
I11
stRp2567
sg65
I173
sg66
F26850.5
sbs(g16
Vword
p2568
tp2569
g1
(g21
g3
NtRp2570
(dp2571
g24
F0.5
sg25
I24667
sg26
g27
((dp2572
VPRP$
p2573
I747
sVVBG
p2574
I89
sVVBD
p2575
I10
sVIN
p2576
I21
sVVBN
p2577
I47
sV,
I1
sg34
I9
sVVBP
p2578
I10
sVWDT
p2579
I434
sVJJ
p2580
I2350
sVWP
p2581
I238
sVVBZ
p2582
I21
sVDT
p2583
I8094
sV#
I11
sVRP
p2584
I1
sV$
I609
sVNN
p2585
I2450
sV(
I3
sVFW
p2586
I2
sVPOS
p2587
I10
sVPRP
p2588
I1672
sVRB
p2589
I42
sV:
I21
sVNNS
p2590
I1669
sVNNP
p2591
I4162
sg46
I1
sVCC
p2592
I1
sVLS
p2593
I11
sVPDT
p2594
I25
sVRBS
p2595
I3
sVRBR
p2596
I12
sVCD
p2597
I1511
sVEX
p2598
I87
sVVBG|NN
p2599
I1
sVWP$
p2600
I10
sVNNPS
p2601
I43
sVJJS
p2602
I52
sVJJR
p2603
I148
sVVB
p2604
I38
sVUH
p2605
I1
stRp2606
sg65
I46
sg66
F24690
sbs(g15
g2568
tp2607
g1
(g21
g3
NtRp2608
(dp2609
g24
F0.5
sg25
I26764
sg26
g27
((dp2610
VPRP$
p2611
I19
sVVBG
p2612
I135
sVVBD
p2613
I17
sVVBN
p2614
I122
sg867
I4
sVVBP
p2615
I23
sVWDT
p2616
I1
sVJJ
p2617
I2832
sVWP
p2618
I3
sVVBZ
p2619
I40
sVDT
p2620
I63
sVRP
p2621
I1
sV$
I115
sVNN
p2622
I10382
sVFW
p2623
I1
sVPOS
p2624
I797
sV.
I1
sVTO
p2625
I1
sVPRP
p2626
I42
sVRB
p2627
I42
sV:
I80
sVNNS
p2628
I4327
sVNNP
p2629
I5235
sVVB
p2630
I10
sVWRB
p2631
I2
sVCC
p2632
I9
sVPDT
p2633
I1
sVRBS
p2634
I20
sVRBR
p2635
I14
sVCD
p2636
I2037
sVEX
p2637
I1
sVIN
p2638
I5
sVWP$
p2639
I4
sVMD
p2640
I2
sVNNPS
p2641
I201
sVJJS
p2642
I111
sVJJR
p2643
I64
stRp2644
sg65
I46
sg66
F26787
sbs(VO
g2568
tp2645
g1
(g21
g3
NtRp2646
(dp2647
g24
F0.5
sg25
I42769
sg26
g27
((dp2648
VVBG
p2649
I1235
sVVBD
p2650
I3017
sVVB
p2651
I2508
sV,
I4889
sg95
I701
sVVBP
p2652
I1290
sVWDT
p2653
I10
sVJJ
p2654
I657
sVVBZ
p2655
I2066
sVDT
p2656
I12
sV#
I5
sVRP
p2657
I105
sVNN
p2658
I349
sV)
I128
sV(
I119
sVFW
p2659
I1
sVPOS
p2660
I17
sV.
I3873
sVTO
p2661
I2179
sVLS
p2662
I2
sVRB
p2663
I2746
sV:
I470
sVNNS
p2664
I54
sVNNP
p2665
I31
sg288
I714
sVWRB
p2666
I176
sVCC
p2667
I2258
sVPDT
p2668
I1
sVRBS
p2669
I12
sVRBR
p2670
I110
sVVBN
p2671
I1967
sVPRP
p2672
I2
sVIN
p2673
I9944
sVCD
p2674
I2
sVMD
p2675
I925
sVJJS
p2676
I19
sVJJR
p2677
I172
sVSYM
p2678
I1
sVUH
p2679
I2
stRp2680
sg65
I46
sg66
F42792
sbs(VO
g849
tp2681
g1
(g21
g3
NtRp2682
(dp2683
g24
F0.5
sg25
I42769
sg26
g27
((dp2684
g854
I31870
sg855
I10899
stRp2685
sg65
I3
sg66
F42770.5
sbs(VO
g67
tp2686
g1
(g21
g3
NtRp2687
(dp2688
g24
F0.5
sg25
I42769
sg26
g27
((dp2689
VI-NP
p2690
I12338
sg16
I12762
sNI2807
sVO
I14862
stRp2691
sg65
I4
sg66
F42771
sbs(g16
g929
tp2692
g1
(g21
g3
NtRp2693
(dp2694
g24
F0.5
sg25
I24667
sg26
g27
((dp2695
VI-NP
p2696
I546
sVB-NP
p2697
I330
sNI2433
sVO
I21358
stRp2698
sg65
I4
sg66
F24669
sbs(g15
g67
tp2699
g1
(g21
g3
NtRp2700
(dp2701
g24
F0.5
sg25
I26764
sg26
g27
((dp2702
g2451
I3940
sVB-NP
p2703
I6908
sNI1647
sVO
I14269
stRp2704
sg65
I4
sg66
F26766
sbs(VO
g2338
tp2705
g1
(g21
g3
NtRp2706
(dp2707
g24
F0.5
sg25
I42769
sg26
g27
((dp2708
Vvb
p2709
I2508
sVcc
p2710
I2258
sVjjs
p2711
I19
sVjjr
p2712
I172
sVcd
p2713
I2
sg95
I701
sVvbn
p2714
I1967
sVprp
p2715
I2
sVin
p2716
I9944
sVnns
p2717
I54
sVnnp
p2718
I31
sV#
I5
sVwrb
p2719
I176
sVnn
p2720
I349
sV)
I128
sV(
I119
sV,
I4889
sV.
I3873
sVto
p2721
I2179
sVls
p2722
I2
sVrb
p2723
I2746
sV:
I470
sg288
I714
sVfw
p2724
I1
sVsym
p2725
I1
sVpos
p2726
I17
sVjj
p2727
I657
sVrp
p2728
I105
sVdt
p2729
I12
sVmd
p2730
I925
sVvbg
p2731
I1235
sVvbd
p2732
I3017
sVpdt
p2733
I1
sVrbs
p2734
I12
sVrbr
p2735
I110
sVvbp
p2736
I1290
sVwdt
p2737
I10
sVuh
p2738
I2
sVvbz
p2739
I2066
stRp2740
sg65
I46
sg66
F42792
sbs(g16
g2122
tp2741
g1
(g21
g3
NtRp2742
(dp2743
g24
F0.5
sg25
I24667
sg26
g27
((dp2744
VNone+jjs
p2745
I2
sVNone+jjr
p2746
I6
sVO+:
p2747
I17
sVNone+''
p2748
I7
sVB-NP+cd
p2749
I7
sVO+ls
p2750
I7
sVNone+vbz
p2751
I3
sVO+wdt
p2752
I228
sVO+dt
p2753
I6892
sVNone+ex
p2754
I18
sVNone+:
p2755
I4
sVNone+nns
p2756
I171
sVO+uh
p2757
I1
sVNone+nnp
p2758
I729
sVI-NP+wp
p2759
I64
sVNone+pdt
p2760
I3
sVO+jj
p2761
I2207
sVI-NP+pos
p2762
I1
sVNone+wdt
p2763
I2
sVNone+vb
p2764
I3
sVNone+rb
p2765
I8
sVO+(
p2766
I2
sVO+``
p2767
I1
sVI-NP+wp$
p2768
I1
sVO+pdt
p2769
I22
sVO+nns
p2770
I1474
sVO+nnp
p2771
I3412
sVO+$
p2772
I609
sVB-NP+vbd
p2773
I4
sVB-NP+nn
p2774
I5
sVI-NP+nnps
p2775
I1
sVO+nnps
p2776
I32
sVB-NP+prp$
p2777
I3
sVB-NP+jj
p2778
I9
sVB-NP+dt
p2779
I85
sVB-NP+wdt
p2780
I48
sVB-NP+wp
p2781
I42
sVO+#
p2782
I11
sVNone+wp
p2783
I13
sVNone+nn
p2784
I163
sVB-NP+wp$
p2785
I1
sVI-NP+wdt
p2786
I156
sVO+pos
p2787
I2
sVNone+jj
p2788
I133
sVI-NP+rbr
p2789
I2
sVO+jjs
p2790
I50
sVO+jjr
p2791
I142
sVO+cd
p2792
I1475
sVO+cc
p2793
I1
sVO+''
p2794
I2
sVO+vbn
p2795
I45
sVNone+nnps
p2796
I10
sVO+prp$
p2797
I715
sVO+vbg
p2798
I82
sVO+prp
p2799
I1332
sVO+vbd
p2800
I5
sVI-NP+dt
p2801
I252
sVO+vbz
p2802
I10
sVB-NP+rb
p2803
I2
sVO+wp
p2804
I119
sVO+nn
p2805
I2279
sVO+vbp
p2806
I8
sVB-NP+prp
p2807
I61
sVI-NP+(
p2808
I1
sVB-NP+ex
p2809
I1
sVI-NP+in
p2810
I1
sVO+fw
p2811
I2
sVO+rbs
p2812
I2
sVO+rbr
p2813
I8
sVB-NP+pos
p2814
I7
sVNone+vbd
p2815
I1
sVNone+cd
p2816
I29
sVB-NP+nnp
p2817
I15
sVNone+vbn
p2818
I2
sVB-NP+rbr
p2819
I1
sVB-NP+nns
p2820
I23
sVO+wp$
p2821
I8
sVO+,
p2822
I1
sVNone+rbr
p2823
I1
sVO+rb
p2824
I32
sVO+vb
p2825
I35
sVB-NP+rbs
p2826
I1
sVO+vbg|nn
p2827
I1
sVNone+prp
p2828
I223
sVO+rp
p2829
I1
sVO+ex
p2830
I68
sVO+in
p2831
I18
sVNone+vbg
p2832
I4
sVNone+dt
p2833
I865
sVI-NP+jj
p2834
I1
sVNone+ls
p2835
I4
sVB-NP+vbg
p2836
I3
sVNone+prp$
p2837
I29
sVI-NP+nn
p2838
I3
sVB-NP+vbp
p2839
I2
sVI-NP+nnp
p2840
I6
sVI-NP+nns
p2841
I1
sVB-NP+in
p2842
I2
sVB-NP+vbz
p2843
I8
sVI-NP+prp
p2844
I56
stRp2845
sg65
I163
sg66
F24748.5
sbs(g16
g2338
tp2846
g1
(g21
g3
NtRp2847
(dp2848
g24
F0.5
sg25
I24667
sg26
g27
((dp2849
Vvb
p2850
I38
sVcc
p2851
I1
sVjjs
p2852
I52
sVjjr
p2853
I148
sVcd
p2854
I1511
sg34
I9
sVex
p2855
I87
sVin
p2856
I21
sVwp$
p2857
I10
sVrbr
p2858
I12
sVnns
p2859
I1669
sVnnp
p2860
I4162
sV#
I11
sVnnps
p2861
I43
sVrp
p2862
I1
sV$
I609
sVnn
p2863
I2450
sV(
I3
sV,
I1
sVls
p2864
I11
sVrb
p2865
I42
sVvbg|nn
p2866
I1
sV:
I21
sg46
I1
sVfw
p2867
I2
sVpos
p2868
I10
sVjj
p2869
I2350
sVwp
p2870
I238
sVdt
p2871
I8094
sVprp$
p2872
I747
sVvbg
p2873
I89
sVvbd
p2874
I10
sVpdt
p2875
I25
sVrbs
p2876
I3
sVvbn
p2877
I47
sVvbp
p2878
I10
sVwdt
p2879
I434
sVuh
p2880
I1
sVvbz
p2881
I21
sVprp
p2882
I1672
stRp2883
sg65
I46
sg66
F24690
sbssS'_label_probdist'
p2884
g1
(g21
g3
NtRp2885
(dp2886
g24
F0.5
sg25
I94200
sg26
g27
((dp2887
g15
I26764
sg16
I24667
sVO
I42769
stRp2888
sg65
I3
sg66
F94201.5
sbsbsb.